                        .module TimeDelay.c
                        .area text(rom, con, rel)
 0000                   .dbfile C:\DOCUME~1\²ÌÓ±Åô\×ÀÃæ\SensorEXBIcc\TimeDelay.c
 0000                   .dbfunc e delay_50us _delay_50us fV
 0000           ;              j -> R20,R21
 0000           ;              n -> R16,R17
                        .even
 0000           _delay_50us::
 0000 00D0              rcall push_gset1
 0002                   .dbline -1
 0002                   .dbline 6
 0002           ; #include "Generic.h"
 0002           ; 
 0002           ; 
 0002           ; 
 0002           ; void delay_50us(unsigned int n)
 0002           ; {
 0002                   .dbline 8
 0002           ;       unsigned int j;
 0002           ;       for(;n>0;n--)
 0002 0BC0              rjmp L5
 0004           L2:
 0004                   .dbline 9
 0004           ;       {
 0004                   .dbline 10
 0004           ;               for(j=0;j<70;j++)
 0004 4427              clr R20
 0006 5527              clr R21
 0008 02C0              rjmp L9
 000A           L6:
 000A                   .dbline 11
 000A           L7:
 000A                   .dbline 10
 000A 4F5F              subi R20,255  ; offset = 1
 000C 5F4F              sbci R21,255
 000E           L9:
 000E                   .dbline 10
 000E 4634              cpi R20,70
 0010 E0E0              ldi R30,0
 0012 5E07              cpc R21,R30
 0014 D0F3              brlo L6
 0016                   .dbline 12
 0016           L3:
 0016                   .dbline 8
 0016 0150              subi R16,1
 0018 1040              sbci R17,0
 001A           L5:
 001A                   .dbline 8
 001A 0030              cpi R16,0
 001C 0107              cpc R16,R17
 001E 91F7              brne L2
 0020           X0:
 0020                   .dbline -2
 0020           L1:
 0020 00D0              rcall pop_gset1
 0022                   .dbline 0 ; func end
 0022 0895              ret
 0024                   .dbsym r j 20 i
 0024                   .dbsym r n 16 i
 0024                   .dbend
 0024                   .dbfunc e delay_ms _delay_ms fV
 0024           ;              n -> R20,R21
                        .even
 0024           _delay_ms::
 0024 00D0              rcall push_gset1
 0026 A801              movw R20,R16
 0028                   .dbline -1
 0028                   .dbline 16
 0028           ;                       ;
 0028           ;       }
 0028           ; }
 0028           ; 
 0028           ; void delay_ms(unsigned int n)
 0028           ; {
 0028                   .dbline 17
 0028           ;       for(;n>0;n--)
 0028 05C0              rjmp L14
 002A           L11:
 002A                   .dbline 18
 002A                   .dbline 19
 002A 04E1              ldi R16,20
 002C 10E0              ldi R17,0
 002E E8DF              rcall _delay_50us
 0030                   .dbline 20
 0030           L12:
 0030                   .dbline 17
 0030 4150              subi R20,1
 0032 5040              sbci R21,0
 0034           L14:
 0034                   .dbline 17
 0034 4030              cpi R20,0
 0036 4507              cpc R20,R21
 0038 C1F7              brne L11
 003A           X1:
 003A                   .dbline -2
 003A           L10:
 003A 00D0              rcall pop_gset1
 003C                   .dbline 0 ; func end
 003C 0895              ret
 003E                   .dbsym r n 20 i
 003E                   .dbend
 003E                   .dbfunc e delay_50ms _delay_50ms fV
 003E           ;              i -> R20,R21
 003E           ;              n -> R16,R17
                        .even
 003E           _delay_50ms::
 003E 00D0              rcall push_gset1
 0040                   .dbline -1
 0040                   .dbline 24
 0040           ;       {
 0040           ;               delay_50us(20);
 0040           ;       }               
 0040           ; }
 0040           ; 
 0040           ; void delay_50ms(unsigned int n)
 0040           ; {
 0040                   .dbline 26
 0040           ;       unsigned int i; 
 0040           ;       for(;n>0;n--)
 0040 0BC0              rjmp L19
 0042           L16:
 0042                   .dbline 27
 0042           ;       {
 0042                   .dbline 28
 0042           ;               for(i=0;i<52642;i++)
 0042 4427              clr R20
 0044 5527              clr R21
 0046 02C0              rjmp L23
 0048           L20:
 0048                   .dbline 29
 0048           L21:
 0048                   .dbline 28
 0048 4F5F              subi R20,255  ; offset = 1
 004A 5F4F              sbci R21,255
 004C           L23:
 004C                   .dbline 28
 004C 423A              cpi R20,162
 004E EDEC              ldi R30,205
 0050 5E07              cpc R21,R30
 0052 D0F3              brlo L20
 0054                   .dbline 30
 0054           L17:
 0054                   .dbline 26
 0054 0150              subi R16,1
 0056 1040              sbci R17,0
 0058           L19:
 0058                   .dbline 26
 0058 0030              cpi R16,0
 005A 0107              cpc R16,R17
 005C 91F7              brne L16
 005E           X2:
 005E                   .dbline -2
 005E           L15:
 005E 00D0              rcall pop_gset1
 0060                   .dbline 0 ; func end
 0060 0895              ret
 0062                   .dbsym r i 20 i
 0062                   .dbsym r n 16 i
 0062                   .dbend
 0062                   .dbfunc e delay_s _delay_s fV
 0062           ;              n -> R20,R21
                        .even
 0062           _delay_s::
 0062 00D0              rcall push_gset1
 0064 A801              movw R20,R16
 0066                   .dbline -1
 0066                   .dbline 34
 0066           ;               ; 
 0066           ;       }
 0066           ; }
 0066           ; 
 0066           ; void delay_s(unsigned int n)
 0066           ; {
 0066                   .dbline 35
 0066           ;       for(;n>0;n--)
 0066 05C0              rjmp L28
 0068           L25:
 0068                   .dbline 36
 0068                   .dbline 37
 0068 04E1              ldi R16,20
 006A 10E0              ldi R17,0
 006C E8DF              rcall _delay_50ms
 006E                   .dbline 38
 006E           L26:
 006E                   .dbline 35
 006E 4150              subi R20,1
 0070 5040              sbci R21,0
 0072           L28:
 0072                   .dbline 35
 0072 4030              cpi R20,0
 0074 4507              cpc R20,R21
 0076 C1F7              brne L25
 0078           X3:
 0078                   .dbline -2
 0078           L24:
 0078 00D0              rcall pop_gset1
 007A                   .dbline 0 ; func end
 007A 0895              ret
 007C                   .dbsym r n 20 i
 007C                   .dbend
