 eboot

 Timestamp is 4f87b39d (Fri Apr 13 13:03:25 2012)

 Preferred load address is 00010000

 Start         Length     Name                   Class
 0001:00000000 00000464H .astart                 CODE
 0001:00000470 000065a2H .rdata                  CODE
 0001:00006a14 00000022H .rdata$debug            CODE
 0001:00006a38 00011850H .text                   CODE
 0001:00018288 00000030H .xdata                  CODE
 0001:000182b8 00000000H .edata                  CODE
 0002:00000000 0000070cH .data                   DATA
 0002:00000720 0000546cH .bss                    DATA
 0003:00000000 000005f8H .pdata                  DATA

  Address         Publics by Value              Rva+Base       Lib:Object

 0000:00000000       ___safe_se_handler_count   00000000     <absolute>
 0000:00000000       ___safe_se_handler_table   00000000     <absolute>
 0001:00000000       StartUp                    00011000 f   startup.obj
 0001:0000011c       g_oalAddressTable          0001111c     startup.obj
 0001:00000520       g_pTOC                     00011520     main.obj
 0001:00000524       ??_C@_0BB@MEBHIIAP@SpinForever?4?4?4?$AN?6?$AA@ 00011524     main.obj
 0001:00000538       ??_C@_0BJ@IFGBBFMB@?$AN?6Enter?5new?5IP?5address?3?5?$AA@ 00011538     main.obj
 0001:00000554       ??_C@_0BK@KKICHCJD@?$AN?6Enter?5new?5subnet?5mask?3?5?$AA@ 00011554     main.obj
 0001:00000570       ??_C@_0DF@JLKFBNBO@?$AN?6Enter?5maximum?5number?5of?5second@ 00011570     main.obj
 0001:000005a8       ??_C@_0DF@HIFHFKDO@WARNING?3?5SetDM9000MACAddress?3?5In@ 000115a8     main.obj
 0001:000005e0       ??_C@_0CO@EIDBOICA@INFO?3?5MAC?5address?5set?5to?3?5?$CFx?3?$CFx?3@ 000115e0     main.obj
 0001:00000610       ??_C@_0DN@MBBAKKLM@?$AN?6Enter?5new?5MAC?5address?5in?5hexad@ 00011610     main.obj
 0001:00000650       ??_C@_1KA@DGEICKPN@?$AAW?$AAA?$AAR?$AAN?$AAI?$AAN?$AAG?$AA?3?$AA?5?$AAM?$AAa?$AAi?$AAn?$AAM?$AAe?$AAn?$AAu?$AA?3?$AA?5?$AAF?$AAa?$AAi?$AAl?$AAe?$AAd?$AA?5?$AAt?$AAo?$AA?5?$AAs?$AAt?$AAo@ 00011650     main.obj
 0001:000006f0       ??_C@_1CO@DMBBNNGL@?$AAS?$AAu?$AAc?$AAc?$AAe?$AAs?$AAs?$AAf?$AAu?$AAl?$AAl?$AAy?$AA?5?$AAW?$AAr?$AAi?$AAt?$AAt?$AAe?$AAn?$AA?$AN?$AA?6?$AA?$AA@ 000116f0     main.obj
 0001:00000720       ??_C@_1JG@HNCGBIEG@?$AAW?$AAA?$AAR?$AAN?$AAI?$AAN?$AAG?$AA?3?$AA?5?$AAM?$AAa?$AAi?$AAn?$AAM?$AAe?$AAn?$AAu?$AA?3?$AA?5?$AAF?$AAa?$AAi?$AAl?$AAe?$AAd?$AA?5?$AAt?$AAo?$AA?5?$AAs?$AAt?$AAo@ 00011720     main.obj
 0001:000007b8       ??_C@_1CK@KEDOHPJG@?$AA?4?$AA?4?$AA?4?$AAe?$AAr?$AAa?$AAs?$AAe?$AA?5?$AAc?$AAo?$AAm?$AAp?$AAl?$AAe?$AAt?$AAe?$AA?4?$AA?$AN?$AA?6?$AA?$AA@ 000117b8     main.obj
 0001:000007e8       ??_C@_1FI@PEDLPPOO@?$AAL?$AAo?$AAw?$AA?9?$AAl?$AAe?$AAv?$AAe?$AAl?$AA?5?$AAf?$AAo?$AAr?$AAm?$AAa?$AAt?$AA?5?$AAB?$AAl?$AAo?$AAc?$AAk?$AAs?$AA?5?$AA?$FL?$AA0?$AAx?$AA?$CF?$AAx?$AA?5?$AA?9?$AA?5@ 000117e8     main.obj
 0001:00000840       ??_C@_1CO@ILLJBANJ@?$AA?4?$AA?4?$AA?4?$AAr?$AAe?$AAs?$AAe?$AAr?$AAv?$AAe?$AA?5?$AAc?$AAo?$AAm?$AAp?$AAl?$AAe?$AAt?$AAe?$AA?4?$AA?$AN?$AA?6?$AA?$AA@ 00011840     main.obj
 0001:00000870       ??_C@_1EK@EGLKHKKN@?$AAR?$AAe?$AAs?$AAe?$AAr?$AAv?$AAi?$AAn?$AAg?$AA?5?$AAB?$AAl?$AAo?$AAc?$AAk?$AAs?$AA?5?$AA?$FL?$AA0?$AAx?$AA?$CF?$AAx?$AA?5?$AA?9?$AA?5?$AA0?$AAx?$AA?$CF?$AAx?$AA?$FN?$AA?5?$AA?4@ 00011870     main.obj
 0001:000008c0       ??_C@_1HE@IMEIMDDH@?$AAE?$AAR?$AAR?$AAO?$AAR?$AA?3?$AA?5?$AAB?$AAo?$AAo?$AAt?$AAM?$AAo?$AAn?$AAi?$AAt?$AAo?$AAr?$AA?3?$AA?5?$AAL?$AAo?$AAw?$AA?9?$AAl?$AAe?$AAv?$AAe?$AAl?$AA?5?$AAb?$AAo@ 000118c0     main.obj
 0001:00000938       ??_C@_1GC@FEDGBHDJ@?$AAE?$AAR?$AAR?$AAO?$AAR?$AA?3?$AA?5?$AAB?$AAo?$AAo?$AAt?$AAM?$AAo?$AAn?$AAi?$AAt?$AAo?$AAr?$AA?3?$AA?5?$AAb?$AAo?$AAo?$AAt?$AA?5?$AAm?$AAe?$AAd?$AAi?$AAa?$AA?5?$AAd@ 00011938     main.obj
 0001:0000099c       ??_C@_1CE@LOHKFGML@?$AA?4?$AA?4?$AA?4?$AAT?$AAO?$AAC?$AA?5?$AAc?$AAo?$AAm?$AAp?$AAl?$AAe?$AAt?$AAe?$AA?$AN?$AA?6?$AA?$AA@ 0001199c     main.obj
 0001:000009c0       ??_C@_1CI@NJIFDNBF@?$AAT?$AAO?$AAC?$AA_?$AAW?$AAr?$AAi?$AAt?$AAe?$AA?5?$AAF?$AAa?$AAi?$AAl?$AAe?$AAd?$AA?$CB?$AA?$AN?$AA?6?$AA?$AA@ 000119c0     main.obj
 0001:000009e8       ??_C@_1DG@BEDKPCIN@?$AAR?$AAe?$AAs?$AAe?$AAt?$AAt?$AAi?$AAn?$AAg?$AA?5?$AAd?$AAe?$AAf?$AAa?$AAu?$AAl?$AAt?$AA?5?$AAT?$AAO?$AAC?$AA?4?$AA?4?$AA?4?$AA?$AN?$AA?6?$AA?$AA@ 000119e8     main.obj
 0001:00000a20       ??_C@_04OLFIILKC@?$CFc?$AN?6?$AA@ 00011a20     main.obj
 0001:00000a28       ??_C@_0BJ@HAKBCIOE@8?$CJ?5Kernel?5Debugger?3?5?$CFs?$AN?6?$AA@ 00011a28     main.obj
 0001:00000a44       ??_C@_0CB@MCJLIPKM@9?$CJ?5Format?5Boot?5Media?5for?5BinFS?$AN?6@ 00011a44     main.obj
 0001:00000a68       ??_C@_0CH@MCLPLBG@B?$CJ?5Mark?5Bad?5Block?5at?5Reserved?5Bl@ 00011a68     main.obj
 0001:00000a90       ??_C@_0CC@NCANDLEB@D?$CJ?5Download?5image?5now?$CIUSE?5TFTP?$CJ?$AN@ 00011a90     main.obj
 0001:00000ab4       ??_C@_0BL@GDHOFNCA@E?$CJ?5Erase?5Reserved?5Block?5?$AN?6?$AA@ 00011ab4     main.obj
 0001:00000ad0       ??_C@_0CL@DCLFAOPJ@F?$CJ?5Low?9level?5format?5the?5Smart?5Me@ 00011ad0     main.obj
 0001:00000afc       ??_C@_0CG@ILOPBFIK@L?$CJ?5LAUNCH?5existing?5Boot?5Media?5im@ 00011afc     main.obj
 0001:00000b24       ??_C@_0BJ@MGJMHLGA@R?$CJ?5Read?5Configuration?5?$AN?6?$AA@ 00011b24     main.obj
 0001:00000b40       ??_C@_0CB@HDKMKLCK@U?$CJ?5Download?5image?5now?$CIUSE?5USB?$CJ?$AN?6@ 00011b40     main.obj
 0001:00000b64       ??_C@_0CD@JLLFFBDH@W?$CJ?5Write?5Configuration?5Right?5Now@ 00011b64     main.obj
 0001:00000b88       ??_C@_0BJ@JCBFAOAD@?$AN?6Enter?5your?5selection?3?5?$AA@ 00011b88     main.obj
 0001:00000ba4       ??_C@_08GLNGGDPJ@DISABLED?$AA@ 00011ba4     main.obj
 0001:00000bb0       ??_C@_07DKCFBCHE@ENABLED?$AA@ 00011bb0     main.obj
 0001:00000bb8       ??_C@_0DB@BDEPLKIG@6?$CJ?5Program?5disk?5image?5into?5Smart@ 00011bb8     main.obj
 0001:00000bec       ??_C@_0DE@GHBKFAII@7?$CJ?5Program?5DM9000?5MAC?5address?5?$CI?$CF@ 00011bec     main.obj
 0001:00000c20       ??_C@_0BH@KJNCMNHN@5?$CJ?5Startup?5image?3?5?$CFs?$AN?6?$AA@ 00011c20     main.obj
 0001:00000c38       ??_C@_0N@JJLBAHCC@DOWNLOAD?5NEW?$AA@ 00011c38     main.obj
 0001:00000c48       ??_C@_0BA@MOAMHEOA@LAUNCH?5EXISTING?$AA@ 00011c48     main.obj
 0001:00000c58       ??_C@_0O@JIMAFGAM@2?$CJ?5DHCP?3?5?$CFs?$AN?6?$AA@ 00011c58     main.obj
 0001:00000c68       ??_C@_0BM@CPIAFFON@3?$CJ?5Boot?5delay?3?5?$CFd?5seconds?$AN?6?$AA@ 00011c68     main.obj
 0001:00000c84       ??_C@_0CM@EFEBIFOH@4?$CJ?5Reset?5to?5factory?5default?5conf@ 00011c84     main.obj
 0001:00000cb0       ??_C@_08JGILNPHN@Disabled?$AA@ 00011cb0     main.obj
 0001:00000cbc       ??_C@_07DOAOMMKG@Enabled?$AA@ 00011cbc     main.obj
 0001:00000cc4       ??_C@_0CK@FPPEALPP@?$AN?6Ethernet?5Boot?5Loader?5Configura@ 00011cc4     main.obj
 0001:00000cf0       ??_C@_0BE@NEGDDEAG@0?$CJ?5IP?5address?3?5?$CFs?$AN?6?$AA@ 00011cf0     main.obj
 0001:00000d04       ??_C@_0BF@MEDMJDHF@1?$CJ?5Subnet?5mask?3?5?$CFs?$AN?6?$AA@ 00011d04     main.obj
 0001:00000d1c       ??_C@_1CI@LDOLEINI@?$AA_?$AAO?$AAE?$AAM?$AAP?$AAl?$AAa?$AAt?$AAf?$AAo?$AAr?$AAm?$AAI?$AAn?$AAi?$AAt?$AA?4?$AA?$AN?$AA?6?$AA?$AA@ 00011d1c     main.obj
 0001:00000d48       ??_C@_1II@GGFKBAEH@?$AAE?$AAR?$AAR?$AAO?$AAR?$AA?3?$AA?5?$AAO?$AAE?$AAM?$AAP?$AAl?$AAa?$AAt?$AAf?$AAo?$AAr?$AAm?$AAI?$AAn?$AAi?$AAt?$AA?3?$AA?5?$AAF?$AAa?$AAi?$AAl?$AAe?$AAd?$AA?5?$AAt@ 00011d48     main.obj
 0001:00000dd0       ??_C@_1EC@EEEEEHIC@?$AAD?$AAo?$AAn?$AA?8?$AAt?$AA?5?$AAs?$AAu?$AAp?$AAp?$AAo?$AAr?$AAt?$AA?5?$AAl?$AAa?$AAu?$AAn?$AAc?$AAh?$AA?5?$AAE?$AAB?$AAO?$AAO?$AAT?$AA?4?$AAb?$AAi?$AAn?$AA?$AN?$AA?6@ 00011dd0     main.obj
 0001:00000e18       ??_C@_1IA@HKFDCAKF@?$AAO?$AAE?$AAM?$AAP?$AAl?$AAa?$AAt?$AAf?$AAo?$AAr?$AAm?$AAI?$AAn?$AAi?$AAt?$AA?5?$AAE?$AAR?$AAR?$AAO?$AAR?$AA?3?$AA?5?$AAF?$AAa?$AAi?$AAl?$AAe?$AAd?$AA?5?$AAt?$AAo@ 00011e18     main.obj
 0001:00000e98       ??_C@_1EO@LBKDMMGG@?$AAO?$AAE?$AAM?$AAP?$AAl?$AAa?$AAt?$AAf?$AAo?$AAr?$AAm?$AAI?$AAn?$AAi?$AAt?$AA?3?$AA?5?$AAI?$AAM?$AAA?$AAG?$AAE?$AA_?$AAT?$AAY?$AAP?$AAE?$AA_?$AAR?$AAA?$AAM?$AAI@ 00011e98     main.obj
 0001:00000ee8       ??_C@_1EG@CFKOMNHA@?$AAD?$AAo?$AAn?$AA?8?$AAt?$AA?5?$AAs?$AAu?$AAp?$AAp?$AAo?$AAr?$AAt?$AA?5?$AAl?$AAa?$AAu?$AAn?$AAc?$AAh?$AA?5?$AAS?$AAT?$AAE?$AAP?$AAL?$AAD?$AAR?$AA?4?$AAb?$AAi?$AAn@ 00011ee8     main.obj
 0001:00000f30       ??_C@_1GG@PHOFLGJG@?$AAO?$AAE?$AAM?$AAP?$AAl?$AAa?$AAt?$AAf?$AAo?$AAr?$AAm?$AAI?$AAn?$AAi?$AAt?$AA?5?$AAE?$AAR?$AAR?$AAO?$AAR?$AA?3?$AA?5?$AAu?$AAn?$AAk?$AAn?$AAo?$AAw?$AAn?$AA?5?$AAi@ 00011f30     main.obj
 0001:00000f98       ??_C@_1HA@JDEAFEKF@?$AAO?$AAE?$AAM?$AAP?$AAl?$AAa?$AAt?$AAf?$AAo?$AAr?$AAm?$AAI?$AAn?$AAi?$AAt?$AA?3?$AA?5?$AAE?$AAR?$AAR?$AAO?$AAR?$AA_?$AAI?$AAN?$AAV?$AAA?$AAL?$AAI?$AAD?$AA_?$AAT@ 00011f98     main.obj
 0001:00001008       ??_C@_1EA@CMFKOLHC@?$AA?$AN?$AA?6?$AAS?$AAt?$AAa?$AAr?$AAt?$AAi?$AAn?$AAg?$AA?5?$AAa?$AAu?$AAt?$AAo?$AA?9?$AAd?$AAo?$AAw?$AAn?$AAl?$AAo?$AAa?$AAd?$AA?5?$AA?4?$AA?4?$AA?4?$AA?5?$AA?$AN?$AA?6?$AA?$AA@ 00012008     main.obj
 0001:00001048       ??_C@_1FC@GMHLLGEB@?$AA?$AN?$AA?6?$AAL?$AAa?$AAu?$AAn?$AAc?$AAh?$AAi?$AAn?$AAg?$AA?5?$AAi?$AAm?$AAa?$AAg?$AAe?$AA?5?$AAf?$AAr?$AAo?$AAm?$AA?5?$AAb?$AAo?$AAo?$AAt?$AA?5?$AAm?$AAe?$AAd?$AAi@ 00012048     main.obj
 0001:0000109c       ??_C@_0N@FLJDAHIC@?$CFd?5seconds?4?5?$AA@ 0001209c     main.obj
 0001:000010b0       ??_C@_1LE@OHNEIEAO@?$AAP?$AAr?$AAe?$AAs?$AAs?$AA?5?$AA?$FL?$AAE?$AAN?$AAT?$AAE?$AAR?$AA?$FN?$AA?5?$AAt?$AAo?$AA?5?$AAd?$AAo?$AAw?$AAn?$AAl?$AAo?$AAa?$AAd?$AA?5?$AAi?$AAm?$AAa?$AAg?$AAe?$AA?5@ 000120b0     main.obj
 0001:00001168       ??_C@_1FI@FAJNHOG@?$AA?$AN?$AA?6?$AAI?$AAn?$AAi?$AAt?$AAi?$AAa?$AAt?$AAi?$AAn?$AAg?$AA?5?$AAi?$AAm?$AAa?$AAg?$AAe?$AA?5?$AAd?$AAo?$AAw?$AAn?$AAl?$AAo?$AAa?$AAd?$AA?5?$AAi?$AAn?$AA?5?$AA?$CF@ 00012168     main.obj
 0001:000011c0       ??_C@_1LA@DHIIOFLA@?$AAP?$AAr?$AAe?$AAs?$AAs?$AA?5?$AA?$FL?$AAE?$AAN?$AAT?$AAE?$AAR?$AA?$FN?$AA?5?$AAt?$AAo?$AA?5?$AAl?$AAa?$AAu?$AAn?$AAc?$AAh?$AA?5?$AAi?$AAm?$AAa?$AAg?$AAe?$AA?5?$AAs?$AAt@ 000121c0     main.obj
 0001:00001270       ??_C@_1FE@MEDIHOMO@?$AA?$AN?$AA?6?$AAI?$AAn?$AAi?$AAt?$AAi?$AAa?$AAt?$AAi?$AAn?$AAg?$AA?5?$AAi?$AAm?$AAa?$AAg?$AAe?$AA?5?$AAl?$AAa?$AAu?$AAn?$AAc?$AAh?$AA?5?$AAi?$AAn?$AA?5?$AA?$CF?$AAd?$AA?5@ 00012270     main.obj
 0001:000012c8       ??_C@_1GE@PICKJMPL@?$AAE?$AAR?$AAR?$AAO?$AAR?$AA?3?$AA?5?$AAB?$AAL?$AAF?$AAl?$AAa?$AAs?$AAh?$AAD?$AAo?$AAw?$AAn?$AAl?$AAo?$AAa?$AAd?$AA?3?$AA?5?$AAF?$AAM?$AAD?$AA_?$AAG?$AAe?$AAt?$AAI@ 000122c8     main.obj
 0001:00001330       ??_C@_1HI@LPCNMJDK@?$AAW?$AAA?$AAR?$AAN?$AAI?$AAN?$AAG?$AA?3?$AA?5?$AAO?$AAE?$AAM?$AAP?$AAl?$AAa?$AAt?$AAf?$AAo?$AAr?$AAm?$AAI?$AAn?$AAi?$AAt?$AA?5?$AAf?$AAa?$AAi?$AAl?$AAe?$AAd?$AA?5@ 00012330     main.obj
 0001:000013a8       ??_C@_0DF@DLCLNINH@?6?$CD?$CD?$CD?$CD?$CD?5Eboot?5for?5?$CFc?$CFc?$CFc?$CFc?$CFc?$CFc?1?$CFc@ 000123a8     main.obj
 0001:000013e0       ??_C@_0DI@GAEBLJMC@?$CD?$CD?$CD?$CD?$CD?5?5?5?5?5?$CFc?$CFc?$CFc?$CFc?$CFc?$CFc?$CFc?$CFc?$CFc?$CFc?$CFc@ 000123e0     main.obj
 0001:00001418       ??_C@_0M@JFNAGGHB@Apr?513?52012?$AA@ 00012418     main.obj
 0001:00001428       ??_C@_0EG@IMHMLOCC@Microsoft?5Windows?5CE?5Bootloader?5@ 00012428     main.obj
 0001:00001470       ??_C@_1CI@MAEMAKDO@?$AA?$CL?$AAO?$AAE?$AAM?$AAP?$AAl?$AAa?$AAt?$AAf?$AAo?$AAr?$AAm?$AAI?$AAn?$AAi?$AAt?$AA?4?$AA?$AN?$AA?6?$AA?$AA@ 00012470     main.obj
 0001:00001498       ??_C@_1CG@FNPAMJCO@?$AA_?$AAO?$AAE?$AAM?$AAP?$AAr?$AAe?$AAD?$AAo?$AAw?$AAn?$AAl?$AAo?$AAa?$AAd?$AA?4?$AA?$AN?$AA?6?$AA?$AA@ 00012498     main.obj
 0001:000014c0       ??_C@_1IG@LNJLFLIL@?$AAE?$AAR?$AAR?$AAO?$AAR?$AA?3?$AA?5?$AAO?$AAE?$AAM?$AAP?$AAr?$AAe?$AAD?$AAo?$AAw?$AAn?$AAl?$AAo?$AAa?$AAd?$AA?3?$AA?5?$AAF?$AAa?$AAi?$AAl?$AAe?$AAd?$AA?5?$AAt?$AAo@ 000124c0     main.obj
 0001:00001548       ??_C@_06EHHMBBMJ@UP2440?$AA@ 00012548     main.obj
 0001:00001550       ??_C@_1CG@LILOOAOE@?$AA?$CL?$AAO?$AAE?$AAM?$AAP?$AAr?$AAe?$AAD?$AAo?$AAw?$AAn?$AAl?$AAo?$AAa?$AAd?$AA?4?$AA?$AN?$AA?6?$AA?$AA@ 00012550     main.obj
 0001:00001578       ??_C@_1CA@LHEBGHJD@?$AA?$CL?$AAO?$AAE?$AAM?$AAR?$AAe?$AAa?$AAd?$AAD?$AAa?$AAt?$AAa?$AA?4?$AA?$AN?$AA?6?$AA?$AA@ 00012578     main.obj
 0001:00001598       ??_C@_1CI@MMDDOODJ@?$AA?$CL?$AAO?$AAE?$AAM?$AAS?$AAh?$AAo?$AAw?$AAP?$AAr?$AAo?$AAg?$AAr?$AAe?$AAs?$AAs?$AA?4?$AA?$AN?$AA?6?$AA?$AA@ 00012598     main.obj
 0001:000015c0       ??_C@_1DO@KEMGMCEG@?$AAE?$AAR?$AAR?$AAO?$AAR?$AA?3?$AA?5?$AAO?$AAE?$AAM?$AAL?$AAa?$AAu?$AAn?$AAc?$AAh?$AA?3?$AA?5?$AAH?$AAa?$AAl?$AAt?$AAi?$AAn?$AAg?$AA?4?$AA?4?$AA?4?$AA?$AN?$AA?6?$AA?$AA@ 000125c0     main.obj
 0001:00001600       ??_C@_1KI@DENNJPPA@?$AAI?$AAN?$AAF?$AAO?$AA?3?$AA?5?$AAO?$AAE?$AAM?$AAL?$AAa?$AAu?$AAn?$AAc?$AAh?$AA?3?$AA?5?$AAJ?$AAu?$AAm?$AAp?$AAi?$AAn?$AAg?$AA?5?$AAt?$AAo?$AA?5?$AAP?$AAh?$AAy?$AAs@ 00012600     main.obj
 0001:000016a8       ??_C@_1GI@NDJIONKN@?$AAE?$AAR?$AAR?$AAO?$AAR?$AA?3?$AA?5?$AAO?$AAE?$AAM?$AAL?$AAa?$AAu?$AAn?$AAc?$AAh?$AA?3?$AA?5?$AAE?$AAb?$AAo?$AAo?$AAt?$AAW?$AAa?$AAi?$AAt?$AAF?$AAo?$AAr?$AAH?$AAo@ 000126a8     main.obj
 0001:00001710       ??_C@_1CC@IIHFDGND@?$AAw?$AAa?$AAi?$AAt?$AAf?$AAo?$AAr?$AAc?$AAo?$AAn?$AAn?$AAe?$AAc?$AAt?$AA?$AN?$AA?6?$AA?$AA@ 00012710     main.obj
 0001:00001738       ??_C@_1EK@LMJOHHN@?$AAE?$AAb?$AAo?$AAo?$AAt?$AA?5?$AAi?$AAm?$AAa?$AAg?$AAe?$AA?5?$AAc?$AAa?$AAn?$AA?8?$AAt?$AA?5?$AAl?$AAa?$AAu?$AAn?$AAc?$AAh?$AA?5?$AAf?$AAr?$AAo?$AAm?$AA?5?$AAr?$AAa@ 00012738     main.obj
 0001:00001788       ??_C@_1EO@PCEIJIP@?$AAS?$AAt?$AAe?$AAp?$AAl?$AAd?$AAr?$AA?5?$AAi?$AAm?$AAa?$AAg?$AAe?$AA?5?$AAc?$AAa?$AAn?$AA?8?$AAt?$AA?5?$AAl?$AAa?$AAu?$AAn?$AAc?$AAh?$AA?5?$AAf?$AAr?$AAo?$AAm?$AA?5@ 00012788     main.obj
 0001:000017d8       ??_C@_1EI@IDOBFOL@?$AAY?$AAo?$AAu?$AA?5?$AAs?$AAh?$AAo?$AAu?$AAl?$AAd?$AA?5?$AAp?$AAr?$AAo?$AAg?$AAr?$AAa?$AAm?$AA?5?$AAi?$AAt?$AA?5?$AAi?$AAn?$AAt?$AAo?$AA?5?$AAf?$AAl?$AAa?$AAs?$AAh@ 000127d8     main.obj
 0001:00001820       ??_C@_1IO@MKCPBMEA@?$AAI?$AAN?$AAF?$AAO?$AA?3?$AA?5?$AAE?$AAb?$AAo?$AAo?$AAt?$AA?5?$AAi?$AAm?$AAa?$AAg?$AAe?$AA?5?$AAs?$AAt?$AAo?$AAr?$AAe?$AAd?$AA?5?$AAt?$AAo?$AA?5?$AAS?$AAm?$AAa?$AAr@ 00012820     main.obj
 0001:000018b0       ??_C@_0CK@EMMDCFIP@INFO?3?5using?5TOC?$FL?$CFd?$FN?5dwJumpAddres@ 000128b0     main.obj
 0001:000018e0       ??_C@_0EP@INKDBDBG@?$CK?$CK?$CK?5OEMLaunch?5ERROR?3?5TOC_Write?5f@ 000128e0     main.obj
 0001:00001930       ??_C@_1JK@ICMHIHNK@?$AAI?$AAN?$AAF?$AAO?$AA?3?$AA?5?$AAS?$AAt?$AAe?$AAp?$AA?5?$AAl?$AAo?$AAa?$AAd?$AAe?$AAr?$AA?5?$AAi?$AAm?$AAa?$AAg?$AAe?$AA?5?$AAs?$AAt?$AAo?$AAr?$AAe?$AAd?$AA?5?$AAt@ 00012930     main.obj
 0001:000019d0       ??_C@_1HE@CPDACFGN@?$AAE?$AAR?$AAR?$AAO?$AAR?$AA?3?$AA?5?$AAO?$AAE?$AAM?$AAL?$AAa?$AAu?$AAn?$AAc?$AAh?$AA?3?$AA?5?$AAF?$AAa?$AAi?$AAl?$AAe?$AAd?$AA?5?$AAt?$AAo?$AA?5?$AAs?$AAt?$AAo?$AAr@ 000129d0     main.obj
 0001:00001a44       ??_C@_1BM@FHAHCIEC@?$AA?$CL?$AAO?$AAE?$AAM?$AAL?$AAa?$AAu?$AAn?$AAc?$AAh?$AA?4?$AA?$AN?$AA?6?$AA?$AA@ 00012a44     main.obj
 0001:00001a60       ??_C@_1DA@EGJCEIGB@?$AAB?$AAI?$AAN?$AA?5?$AAi?$AAm?$AAa?$AAg?$AAe?$AA?5?$AAt?$AAy?$AAp?$AAe?$AA?5?$AAu?$AAn?$AAk?$AAn?$AAo?$AAw?$AA?$AN?$AA?6?$AA?$AA@ 00012a60     main.obj
 0001:00001a90       ??_C@_1EK@OLKLPOOP@?$AAd?$AAw?$AAS?$AAt?$AAa?$AAr?$AAt?$AAA?$AAd?$AAd?$AAr?$AA?5?$AA0?$AAx?$AA?$CF?$AAx?$AA?5?$AA?5?$AA?5?$AA?5?$AA?$DL?$AA?5?$AAd?$AAw?$AAL?$AAe?$AAn?$AAg?$AAt?$AAh?$AA0?$AAx@ 00012a90     main.obj
 0001:00001adc       ??_C@_1DE@LPOJKIMI@?$AAD?$AAo?$AAn?$AA?8?$AAt?$AA?5?$AAs?$AAu?$AAp?$AAp?$AAo?$AAr?$AAt?$AA?5?$AAr?$AAa?$AAw?$AA?5?$AAi?$AAm?$AAa?$AAg?$AAe?$AA?$AN?$AA?6?$AA?$AA@ 00012adc     main.obj
 0001:00001b10       ??_C@_1CM@INAEKDHE@?$AAR?$AAA?$AAM?$AA?5?$AAi?$AAm?$AAa?$AAg?$AAe?$AA?5?$AA0?$AAx?$AA?$CF?$AAx?$AA?5?$AA0?$AAx?$AA?$CF?$AAx?$AA?$AN?$AA?6?$AA?$AA@ 00012b10     main.obj
 0001:00001b3c       ??_C@_1CE@EAHCCFNO@?$AA?$CL?$AA?5?$AAE?$AAb?$AAo?$AAo?$AAt?$AA?5?$AAi?$AAm?$AAa?$AAg?$AAe?$AA?5?$AA?$CL?$AA?$AN?$AA?6?$AA?$AA@ 00012b3c     main.obj
 0001:00001b60       ??_C@_1CA@LDJNCHCC@?$AAS?$AAt?$AAe?$AAp?$AAl?$AAd?$AAr?$AA?5?$AAi?$AAm?$AAa?$AAg?$AAe?$AA?$AN?$AA?6?$AA?$AA@ 00012b60     main.obj
 0001:00001b80       ??_C@_1GM@JNALPDJG@?$AA?$CL?$AA?$DN?$AAO?$AAE?$AAM?$AAV?$AAe?$AAr?$AAi?$AAf?$AAy?$AAM?$AAe?$AAm?$AAo?$AAr?$AAy?$AA?$CL?$AA?5?$AAd?$AAw?$AAS?$AAt?$AAa?$AAr?$AAt?$AAA?$AAd?$AAd?$AAr?$AA?3?$AA0@ 00012b80     main.obj
 0001:00001bf0       ??_C@_1IA@IBENLAND@?$AAW?$AAA?$AAR?$AAN?$AAI?$AAN?$AAG?$AA?3?$AA?5?$AAO?$AAE?$AAM?$AAM?$AAu?$AAl?$AAt?$AAi?$AAB?$AAI?$AAN?$AAN?$AAo?$AAt?$AAi?$AAf?$AAy?$AA?3?$AA?5?$AAI?$AAn?$AAv?$AAa@ 00012bf0     main.obj
 0001:00001c70       ??_C@_1CM@CACCPAAK@?$AA_?$AAO?$AAE?$AAM?$AAM?$AAu?$AAl?$AAt?$AAi?$AAB?$AAI?$AAN?$AAN?$AAo?$AAt?$AAi?$AAf?$AAy?$AA?4?$AA?$AN?$AA?6?$AA?$AA@ 00012c70     main.obj
 0001:00001ca0       ??_C@_1IC@EBLDGOMK@?$AAW?$AAA?$AAR?$AAN?$AAI?$AAN?$AAG?$AA?3?$AA?5?$AAO?$AAE?$AAM?$AAM?$AAu?$AAl?$AAt?$AAi?$AAB?$AAI?$AAN?$AAN?$AAo?$AAt?$AAi?$AAf?$AAy?$AA?3?$AA?5?$AAB?$AAa?$AAd?$AA?5@ 00012ca0     main.obj
 0001:00001d28       ??_C@_1EO@NPMENCIA@?$AA?$FL?$AA?$CF?$AAd?$AA?$FN?$AA?3?$AA?5?$AAB?$AAa?$AAs?$AAe?$AA?5?$AAA?$AAd?$AAd?$AAr?$AAe?$AAs?$AAs?$AA?$DN?$AA0?$AAx?$AA?$CF?$AAx?$AA?5?$AA?5?$AAL?$AAe?$AAn?$AAg?$AAt?$AAh?$AA?$DN@ 00012d28     main.obj
 0001:00001d78       ??_C@_1EG@CCAHFOGC@?$AA?$AN?$AA?6?$AAD?$AAo?$AAw?$AAn?$AAl?$AAo?$AAa?$AAd?$AA?5?$AAB?$AAI?$AAN?$AA?5?$AAf?$AAi?$AAl?$AAe?$AA?5?$AAi?$AAn?$AAf?$AAo?$AAr?$AAm?$AAa?$AAt?$AAi?$AAo?$AAn?$AA?3@ 00012d78     main.obj
 0001:00001dc0       ??_C@_1HA@OFICNOEP@?$AA?9?$AA?9?$AA?9?$AA?9?$AA?9?$AA?9?$AA?9?$AA?9?$AA?9?$AA?9?$AA?9?$AA?9?$AA?9?$AA?9?$AA?9?$AA?9?$AA?9?$AA?9?$AA?9?$AA?9?$AA?9?$AA?9?$AA?9?$AA?9?$AA?9?$AA?9?$AA?9?$AA?9?$AA?9?$AA?9?$AA?9?$AA?9@ 00012dc0     main.obj
 0001:00001e30       ??_C@_1CM@IIGCLNOI@?$AA?$CL?$AAO?$AAE?$AAM?$AAM?$AAu?$AAl?$AAt?$AAi?$AAB?$AAI?$AAN?$AAN?$AAo?$AAt?$AAi?$AAf?$AAy?$AA?4?$AA?$AN?$AA?6?$AA?$AA@ 00012e30     main.obj
 0001:00001e5c       ??_C@_06OLEINIPO@nk?4exe?$AA@ 00012e5c     main.obj
 0001:00001f88       ??_C@_1CE@PPOLGCBE@?$AA?9?$AAI?$AAn?$AAi?$AAt?$AAE?$AAt?$AAh?$AAD?$AAe?$AAv?$AAi?$AAc?$AAe?$AA?4?$AA?$AN?$AA?6?$AA?$AA@ 00012f88     ether.obj
 0001:00001fb0       ??_C@_1FK@CKEKMON@?$AAE?$AAR?$AAR?$AAO?$AAR?$AA?3?$AA?5?$AAI?$AAn?$AAi?$AAt?$AAE?$AAt?$AAh?$AAD?$AAe?$AAv?$AAi?$AAc?$AAe?$AA?3?$AA?5?$AAI?$AAn?$AAv?$AAa?$AAl?$AAi?$AAd?$AA?5?$AAM?$AAA@ 00012fb0     ether.obj
 0001:00002010       ??_C@_1IE@KMGADJHJ@?$AAE?$AAR?$AAR?$AAO?$AAR?$AA?3?$AA?5?$AAI?$AAn?$AAi?$AAt?$AAE?$AAt?$AAh?$AAD?$AAe?$AAv?$AAi?$AAc?$AAe?$AA?3?$AA?5?$AAF?$AAa?$AAi?$AAl?$AAe?$AAd?$AA?5?$AAt?$AAo?$AA?5@ 00013010     ether.obj
 0001:00002094       ??_C@_1CE@DGCLJFOI@?$AA?$CL?$AAI?$AAn?$AAi?$AAt?$AAE?$AAt?$AAh?$AAD?$AAe?$AAv?$AAi?$AAc?$AAe?$AA?4?$AA?$AN?$AA?6?$AA?$AA@ 00013094     ether.obj
 0001:000020b8       ??_C@_0CM@PEMGPOKC@INFO?3?5OEMEthSendFrame?3?5retrying?5@ 000130b8     ether.obj
 0001:00002178       ??_C@_1DG@MKHMFGCD@?$AAO?$AAE?$AAM?$AAM?$AAa?$AAp?$AAM?$AAe?$AAm?$AAA?$AAd?$AAd?$AAr?$AA?5?$AA0?$AAx?$AA?$CF?$AAx?$AA?5?$AA?5?$AA0?$AAx?$AA?$CF?$AAx?$AA?$AN?$AA?6?$AA?$AA@ 00013178     flash.obj
 0001:00002240       ??_C@_1EK@OPPDNHBL@?$AAE?$AAR?$AAR?$AAO?$AAR?$AA?3?$AA?5?$AAP?$AAr?$AAo?$AAb?$AAe?$AA?3?$AA?5?$AAC?$AAa?$AAn?$AA?5?$AAn?$AAo?$AAt?$AA?5?$AAf?$AAi?$AAn?$AAd?$AA?5?$AAD?$AAM?$AA9?$AA0?$AA0@ 00013240     dm9000dbg.obj
 0001:00002290       ??_C@_1EG@NNHFPGGK@?$AAI?$AAN?$AAF?$AAO?$AA?3?$AA?5?$AAP?$AAr?$AAo?$AAb?$AAe?$AA?3?$AA?5?$AAD?$AAM?$AA9?$AA0?$AA0?$AA0?$AA?5?$AAi?$AAs?$AA?5?$AAd?$AAe?$AAt?$AAe?$AAc?$AAt?$AAe?$AAd?$AA?4@ 00013290     dm9000dbg.obj
 0001:000022d8       ??_C@_1FC@FLIHLGKI@?$AAD?$AAM?$AA9?$AA0?$AA0?$AA0?$AA?3?$AA?5?$AAM?$AAA?$AAC?$AA?5?$AAA?$AAd?$AAd?$AAr?$AAe?$AAs?$AAs?$AA?3?$AA?5?$AA?$CF?$AAx?$AA?3?$AA?$CF?$AAx?$AA?3?$AA?$CF?$AAx?$AA?3?$AA?$CF?$AAx@ 000132d8     dm9000dbg.obj
 0001:0000232c       ??_C@_0N@CPDDMNGC@BootCfg?5?$HL?5?$AN?6?$AA@ 0001332c     nand.obj
 0001:0000233c       ??_C@_0BG@EPEDPIMK@?5?5ConfigFlags?3?50x?$CFx?$AN?6?$AA@ 0001333c     nand.obj
 0001:00002354       ??_C@_0BE@FIJGOOJJ@?5?5BootDelay?3?50x?$CFx?$AN?6?$AA@ 00013354     nand.obj
 0001:00002368       ??_C@_0BE@HMEKOBIH@?5?5ImageIndex?3?5?$CFd?5?$AN?6?$AA@ 00013368     nand.obj
 0001:0000237c       ??_C@_0L@PDINKPHL@?5?5IP?3?5?$CFs?$AN?6?$AA@ 0001337c     nand.obj
 0001:00002388       ??_C@_0CD@DDINOIJK@?5?5MAC?5Address?3?5?$CFB?3?$CFB?3?$CFB?3?$CFB?3?$CFB?3?$CFB@ 00013388     nand.obj
 0001:000023ac       ??_C@_0N@HMPKPEGF@?5?5Port?3?5?$CFs?$AN?6?$AA@ 000133ac     nand.obj
 0001:000023bc       ??_C@_0BD@JFJMJPAF@?5?5SubnetMask?3?5?$CFs?$AN?6?$AA@ 000133bc     nand.obj
 0001:000023d0       ??_C@_03LFNJCDHL@?$HN?$AN?6?$AA@ 000133d0     nand.obj
 0001:000023d4       ??_C@_0BC@CMMAAAKE@?$CLBootConfigInit?$AN?6?$AA@ 000133d4     nand.obj
 0001:000023e8       ??_C@_0M@JJOAIPCD@192?4168?41?46?$AA@ 000133e8     nand.obj
 0001:000023f4       ??_C@_0O@HGNGLBEC@255?4255?4255?40?$AA@ 000133f4     nand.obj
 0001:00002404       ??_C@_0BC@CCLMLMCB@?9BootConfigInit?$AN?6?$AA@ 00013404     nand.obj
 0001:00002418       ??_C@_0BO@POEHNODL@?5?5sgList?$FL?$CFu?$FN?4dwSector?3?50x?$CFx?$AN?6?$AA@ 00013418     nand.obj
 0001:00002438       ??_C@_0BO@GPFMIPDF@?5?5sgList?$FL?$CFu?$FN?4dwLength?3?50x?$CFx?$AN?6?$AA@ 00013438     nand.obj
 0001:00002458       ??_C@_0L@GODFOKNP@ID?$FL?$CFu?$FN?5?$HL?$AN?6?$AA@ 00013458     nand.obj
 0001:00002464       ??_C@_0BE@GDEGIDNH@?5?5dwVersion?3?50x?$CFx?$AN?6?$AA@ 00013464     nand.obj
 0001:00002478       ??_C@_0BG@CIGDJAF@?5?5dwSignature?3?50x?$CFx?$AN?6?$AA@ 00013478     nand.obj
 0001:00002490       ??_C@_0BB@FDNDAFHN@?5?5String?3?5?8?$CFs?8?$AN?6?$AA@ 00013490     nand.obj
 0001:000024a4       ??_C@_0BG@JPPPMJHI@?5?5dwImageType?3?50x?$CFx?$AN?6?$AA@ 000134a4     nand.obj
 0001:000024bc       ??_C@_0BH@GIKFDOPM@?5?5dwTtlSectors?3?50x?$CFx?$AN?6?$AA@ 000134bc     nand.obj
 0001:000024d4       ??_C@_0BI@KMNKEIIG@?5?5dwLoadAddress?3?50x?$CFx?$AN?6?$AA@ 000134d4     nand.obj
 0001:000024ec       ??_C@_0BI@DOAODCJF@?5?5dwJumpAddress?3?50x?$CFx?$AN?6?$AA@ 000134ec     nand.obj
 0001:00002504       ??_C@_0BI@GHCLPFMO@?5?5dwStoreOffset?3?50x?$CFx?$AN?6?$AA@ 00013504     nand.obj
 0001:0000251c       ??_C@_0CA@NEPLBIBK@chainInfo?4dwLoadAddress?3?50X?$CFX?$AN?6?$AA@ 0001351c     nand.obj
 0001:0000253c       ??_C@_0CB@OANIHCAF@chainInfo?4dwFlashAddress?3?50X?$CFX?$AN?6@ 0001353c     nand.obj
 0001:00002560       ??_C@_0BL@PEHJLAFE@chainInfo?4dwLength?3?50X?$CFX?$AN?6?$AA@ 00013560     nand.obj
 0001:0000257c       ??_C@_07PPPGNDLI@TOC?5?$HL?$AN?6?$AA@ 0001357c     nand.obj
 0001:00002584       ??_C@_0BE@LKCNKEHD@dwSignature?3?50x?$CFx?$AN?6?$AA@ 00013584     nand.obj
 0001:00002598       ??_C@_09IMLFAILL@eboot?4nb0?$AA@ 00013598     nand.obj
 0001:000025a4       ??_C@_0CO@ODPPDMDA@ERROR?3?5OEMLaunch?3?5unknown?5image?5@ 000135a4     nand.obj
 0001:000025d4       ??_C@_0CN@IACCBENF@?$AN?6?$CK?$CK?$CK?5WARNING?3?5TOC_Init?5blasting@ 000135d4     nand.obj
 0001:00002608       ??_C@_0GH@LGOMHGNJ@TOC_Init?3?5dwEntry?3?$CFu?0?5dwImageTyp@ 00013608     nand.obj
 0001:00002670       ??_C@_0DI@KILFNEGB@TOC_Read?5ERROR?3?5SectorInfo?5verif@ 00013670     nand.obj
 0001:000026a8       ??_C@_0CO@LOFHMIMD@TOC_Read?5ERROR?3?5INVALID_TOC?5Sign@ 000136a8     nand.obj
 0001:000026d8       ??_C@_0CF@HIAIHKEM@TOC_Read?5ERROR?3?5Unable?5to?5read?5T@ 000136d8     nand.obj
 0001:00002700       ??_C@_0CA@JBNMNLHC@TOC_Read?5ERROR?3?5no?5boot?5media?$AN?6?$AA@ 00013700     nand.obj
 0001:00002720       ??_C@_0DJ@KGPFGKJC@TOC_Write?5ERROR?3?5SectorInfo?5veri@ 00013720     nand.obj
 0001:0000275c       ??_C@_0CF@HKGMDOMH@TOC_Write?5ERROR?3?5TOC?5verify?5fail@ 0001375c     nand.obj
 0001:00002784       ??_C@_0CN@CHHOCEMC@TOC_Write?5ERROR?3?5Unable?5to?5read?1@ 00013784     nand.obj
 0001:000027b4       ??_C@_0CG@BOEGBDIH@TOC_Write?5ERROR?3?5Unable?5to?5save?5@ 000137b4     nand.obj
 0001:000027e0       ??_C@_1EG@MEEIPAOM@?$AAT?$AAO?$AAC?$AA_?$AAW?$AAr?$AAi?$AAt?$AAe?$AA?5?$AAE?$AAR?$AAR?$AAO?$AAR?$AA?3?$AA?5?$AAE?$AAr?$AAa?$AAs?$AAe?$AAB?$AAl?$AAo?$AAc?$AAk?$AA?$FL?$AA?$CF?$AAd?$AA?$FN?$AA?5@ 000137e0     nand.obj
 0001:00002828       ??_C@_0DF@ECGNLKOF@TOC_Write?5ERROR?3?5INVALID_IMAGE?$FL?$CF@ 00013828     nand.obj
 0001:00002860       ??_C@_0CP@EFNMKHDO@TOC_Write?5ERROR?3?5INVALID_TOC?5Sig@ 00013860     nand.obj
 0001:00002890       ??_C@_0CA@JLLBILBC@TOC_Write?5WARN?3?5no?5boot?5media?$AN?6?$AA@ 00013890     nand.obj
 0001:000028b0       ??_C@_1DG@POCFDGNP@?$AA?9?$AAW?$AAr?$AAi?$AAt?$AAe?$AAO?$AAS?$AAI?$AAm?$AAa?$AAg?$AAe?$AAT?$AAo?$AAB?$AAo?$AAo?$AAt?$AAM?$AAe?$AAd?$AAi?$AAa?$AA?$AN?$AA?6?$AA?$AA@ 000138b0     nand.obj
 0001:000028e8       ??_C@_1KA@KACPKLNO@?$AA?$CK?$AA?$CK?$AA?$CK?$AA?5?$AAW?$AAA?$AAR?$AAN?$AA?3?$AA?5?$AAS?$AAt?$AAo?$AAr?$AAe?$AAI?$AAm?$AAa?$AAg?$AAe?$AAT?$AAo?$AAB?$AAo?$AAo?$AAt?$AAM?$AAe?$AAd?$AAi?$AAa?$AA?3@ 000138e8     nand.obj
 0001:00002988       ??_C@_0GF@IDOMNDPN@ERROR?3?5StoreImageToBootMedia?3?5Fa@ 00013988     nand.obj
 0001:000029f0       ??_C@_1KO@MJDOHGFA@?$AAE?$AAR?$AAR?$AAO?$AAR?$AA?3?$AA?5?$AAS?$AAt?$AAo?$AAr?$AAe?$AAI?$AAm?$AAa?$AAg?$AAe?$AAT?$AAo?$AAB?$AAo?$AAo?$AAt?$AAM?$AAe?$AAd?$AAi?$AAa?$AA?3?$AA?5?$AAF?$AAa@ 000139f0     nand.obj
 0001:00002aa0       ??_C@_1EG@FCAEHLKA@?$AAW?$AAr?$AAi?$AAt?$AAt?$AAe?$AAn?$AA?5?$AAC?$AAh?$AAa?$AAi?$AAn?$AA?5?$AAR?$AAe?$AAg?$AAi?$AAo?$AAn?$AA?5?$AAt?$AAo?$AA?5?$AAt?$AAh?$AAe?$AA?5?$AAF?$AAl?$AAa?$AAs@ 00013aa0     nand.obj
 0001:00002ae8       ??_C@_1HA@BPAKPOPG@?$AAL?$AAo?$AAa?$AAd?$AAA?$AAd?$AAd?$AAr?$AAe?$AAs?$AAs?$AA?5?$AA?$DN?$AA?5?$AA0?$AAx?$AA?$CF?$AAX?$AA?$DL?$AA?5?$AAF?$AAl?$AAa?$AAs?$AAh?$AAA?$AAd?$AAd?$AAr?$AAe?$AAs?$AAs@ 00013ae8     nand.obj
 0001:00002b58       ??_C@_1CC@EOGKCIGD@?$AAU?$AAp?$AAd?$AAa?$AAt?$AAe?$AAd?$AAe?$AAd?$AA?5?$AAT?$AAO?$AAC?$AA?$CB?$AA?$AN?$AA?6?$AA?$AA@ 00013b58     nand.obj
 0001:00002b80       ??_C@_1IG@CHAJDFJE@?$AAE?$AAR?$AAR?$AAO?$AAR?$AA?3?$AA?5?$AAW?$AAr?$AAi?$AAt?$AAe?$AAO?$AAS?$AAI?$AAm?$AAa?$AAg?$AAe?$AAT?$AAo?$AAB?$AAo?$AAo?$AAt?$AAM?$AAe?$AAd?$AAi?$AAa?$AA?3?$AA?5@ 00013b80     nand.obj
 0001:00002c08       ??_C@_1II@PAOHGILJ@?$AAW?$AAr?$AAi?$AAt?$AAi?$AAn?$AAg?$AA?5?$AAs?$AAi?$AAn?$AAg?$AAl?$AAe?$AA?5?$AAr?$AAe?$AAg?$AAi?$AAo?$AAn?$AA?1?$AAm?$AAu?$AAl?$AAt?$AAi?$AA?9?$AAr?$AAe?$AAg?$AAi@ 00013c08     nand.obj
 0001:00002c90       ??_C@_1DO@OHELMHEB@?$AAd?$AAw?$AAM?$AAa?$AAx?$AAR?$AAe?$AAg?$AAi?$AAo?$AAn?$AAL?$AAe?$AAn?$AAg?$AAt?$AAh?$AA?$FL?$AA?$CF?$AAu?$AA?$FN?$AA?3?$AA?5?$AA0?$AAx?$AA?$CF?$AAx?$AA?5?$AA?$AN?$AA?6?$AA?$AA@ 00013c90     nand.obj
 0001:00002cd0       ??_C@_1HE@PPADBCIO@?$AAB?$AAI?$AAN?$AAF?$AAS?$AAP?$AAa?$AAr?$AAt?$AAM?$AAa?$AAx?$AAL?$AAe?$AAn?$AAg?$AAt?$AAh?$AA?$FL?$AA?$CF?$AAu?$AA?$FN?$AA?3?$AA?5?$AA0?$AAx?$AA?$CF?$AAx?$AA?0?$AA?5?$AAT?$AAt@ 00013cd0     nand.obj
 0001:00002d44       ??_C@_1DA@OCLJFNEK@?$AAW?$AAr?$AAi?$AAt?$AAi?$AAn?$AAg?$AA?5?$AAm?$AAu?$AAl?$AAt?$AAi?$AA?9?$AAr?$AAe?$AAg?$AAi?$AAo?$AAn?$AAs?$AA?$AN?$AA?6?$AA?$AA@ 00013d44     nand.obj
 0001:00002d78       ??_C@_1HE@HNAKDIOL@?$AAF?$AAo?$AAu?$AAn?$AAd?$AA?5?$AAt?$AAh?$AAe?$AA?5?$AAC?$AAh?$AAa?$AAi?$AAn?$AA?5?$AAr?$AAe?$AAg?$AAi?$AAo?$AAn?$AA?3?$AA?5?$AAS?$AAt?$AAa?$AAr?$AAt?$AAA?$AAd?$AAd@ 00013d78     nand.obj
 0001:00002df0       ??_C@_1KC@KCDMGJF@?$AAI?$AAN?$AAF?$AAO?$AA?3?$AA?5?$AAO?$AAE?$AAM?$AAL?$AAa?$AAu?$AAn?$AAc?$AAh?$AA?3?$AA?5?$AAF?$AAo?$AAu?$AAn?$AAd?$AA?5?$AA?8?$AAc?$AAh?$AAa?$AAi?$AAn?$AA?5?$AAi?$AAn@ 00013df0     nand.obj
 0001:00002e94       ??_C@_0BC@IKEOGALG@chain?5information?$AA@ 00013e94     nand.obj
 0001:00002ea8       ??_C@_1GO@GNLJMNFP@?$AAI?$AAN?$AAF?$AAO?$AA?3?$AA?5?$AAO?$AAE?$AAM?$AAL?$AAa?$AAu?$AAn?$AAc?$AAh?$AA?3?$AA?5?$AAF?$AAo?$AAu?$AAn?$AAd?$AA?5?$AAc?$AAh?$AAa?$AAi?$AAn?$AA?5?$AAe?$AAx?$AAt@ 00013ea8     nand.obj
 0001:00002f18       ??_C@_1CK@MNFIFCLN@?$AAE?$AAR?$AAR?$AAO?$AAR?$AA?3?$AA?5?$AAI?$AAN?$AAV?$AAA?$AAL?$AAI?$AAD?$AA_?$AAT?$AAO?$AAC?$AA?$AN?$AA?6?$AA?$AA@ 00013f18     nand.obj
 0001:00002f48       ??_C@_1FK@CHPOOIKC@?$AAW?$AAA?$AAR?$AAN?$AA?3?$AA?5?$AAW?$AAr?$AAi?$AAt?$AAe?$AAO?$AAS?$AAI?$AAm?$AAa?$AAg?$AAe?$AAT?$AAo?$AAB?$AAo?$AAo?$AAt?$AAM?$AAe?$AAd?$AAi?$AAa?$AA?3?$AA?5?$AAI@ 00013f48     nand.obj
 0001:00002fa8       ??_C@_1HA@HNEHDFFG@?$AAE?$AAR?$AAR?$AAO?$AAR?$AA?3?$AA?5?$AAW?$AAr?$AAi?$AAt?$AAe?$AAO?$AAS?$AAI?$AAm?$AAa?$AAg?$AAe?$AAT?$AAo?$AAB?$AAo?$AAo?$AAt?$AAM?$AAe?$AAd?$AAi?$AAa?$AA?3?$AA?5@ 00013fa8     nand.obj
 0001:00003018       ??_C@_1MG@MHFAIABJ@?$AA?$CL?$AAW?$AAr?$AAi?$AAt?$AAe?$AAO?$AAS?$AAI?$AAm?$AAa?$AAg?$AAe?$AAT?$AAo?$AAB?$AAo?$AAo?$AAt?$AAM?$AAe?$AAd?$AAi?$AAa?$AA?3?$AA?5?$AAg?$AA_?$AAd?$AAw?$AAT?$AAo@ 00014018     nand.obj
 0001:000030e0       ??_C@_1DG@PLPIMDGL@?$AA?$CL?$AAW?$AAr?$AAi?$AAt?$AAe?$AAO?$AAS?$AAI?$AAm?$AAa?$AAg?$AAe?$AAT?$AAo?$AAB?$AAo?$AAo?$AAt?$AAM?$AAe?$AAd?$AAi?$AAa?$AA?$AN?$AA?6?$AA?$AA@ 000140e0     nand.obj
 0001:00003118       ??_C@_1NA@EBFDCEFM@?$AAR?$AAe?$AAa?$AAd?$AAO?$AAS?$AAI?$AAm?$AAa?$AAg?$AAe?$AAF?$AAr?$AAo?$AAm?$AAB?$AAo?$AAo?$AAt?$AAM?$AAe?$AAd?$AAi?$AAa?$AA?3?$AA?5?$AAE?$AAR?$AAR?$AAO?$AAR?$AA_@ 00014118     nand.obj
 0001:000031e8       ??_C@_1DI@KLCKJDOE@?$AA_?$AAR?$AAe?$AAa?$AAd?$AAO?$AAS?$AAI?$AAm?$AAa?$AAg?$AAe?$AAF?$AAr?$AAo?$AAm?$AAB?$AAo?$AAo?$AAt?$AAM?$AAe?$AAd?$AAi?$AAa?$AA?$AN?$AA?6?$AA?$AA@ 000141e8     nand.obj
 0001:00003220       ??_C@_1FK@NJDNNFPP@?$AAT?$AAO?$AAC?$AA_?$AAW?$AAr?$AAi?$AAt?$AAe?$AA?5?$AAE?$AAR?$AAR?$AAO?$AAR?$AA?3?$AA?5?$AAU?$AAn?$AAa?$AAb?$AAl?$AAe?$AA?5?$AAt?$AAo?$AA?5?$AAr?$AAe?$AAa?$AAd?$AA?1@ 00014220     nand.obj
 0001:00003280       ??_C@_1EC@CANGJDDI@?$AAc?$AAh?$AAa?$AAi?$AAn?$AAa?$AAd?$AAd?$AAr?$AA?$DN?$AA0?$AAx?$AA?$CF?$AAx?$AA?0?$AA?5?$AAf?$AAl?$AAa?$AAs?$AAh?$AAa?$AAd?$AAd?$AAr?$AA?$DN?$AA0?$AAx?$AA?$CF?$AAx?$AA?$AN?$AA?6@ 00014280     nand.obj
 0001:000032c8       ??_C@_1KA@FDNMONEC@?$AAE?$AAR?$AAR?$AAO?$AAR?$AA?3?$AA?5?$AAR?$AAe?$AAa?$AAd?$AAO?$AAS?$AAI?$AAm?$AAa?$AAg?$AAe?$AAF?$AAr?$AAo?$AAm?$AAB?$AAo?$AAo?$AAt?$AAM?$AAe?$AAd?$AAi?$AAa?$AA?3@ 000142c8     nand.obj
 0001:00003368       ??_C@_1LE@BPDAEPPB@?$AAE?$AAR?$AAR?$AAO?$AAR?$AA?3?$AA?5?$AAR?$AAe?$AAa?$AAd?$AAO?$AAS?$AAI?$AAm?$AAa?$AAg?$AAe?$AAF?$AAr?$AAo?$AAm?$AAB?$AAo?$AAo?$AAt?$AAM?$AAe?$AAd?$AAi?$AAa?$AA?3@ 00014368     nand.obj
 0001:00003420       ??_C@_1IM@LOAGMDNE@?$AAE?$AAR?$AAR?$AAO?$AAR?$AA?3?$AA?5?$AAR?$AAe?$AAa?$AAd?$AAO?$AAS?$AAI?$AAm?$AAa?$AAg?$AAe?$AAF?$AAr?$AAo?$AAm?$AAB?$AAo?$AAo?$AAt?$AAM?$AAe?$AAd?$AAi?$AAa?$AA?3@ 00014420     nand.obj
 0001:000034b0       ??_C@_1IC@JMFJGKLL@?$AAR?$AAe?$AAa?$AAd?$AAO?$AAS?$AAI?$AAm?$AAa?$AAg?$AAe?$AAF?$AAr?$AAo?$AAm?$AAB?$AAo?$AAo?$AAt?$AAM?$AAe?$AAd?$AAi?$AAa?$AA?3?$AA?5?$AAE?$AAR?$AAR?$AAO?$AAR?$AA_@ 000144b0     nand.obj
 0001:00003538       ??_C@_1FO@NFLBHKMP@?$AAE?$AAR?$AAR?$AAO?$AAR?$AA?3?$AA?5?$AAR?$AAe?$AAa?$AAd?$AAO?$AAS?$AAI?$AAm?$AAa?$AAg?$AAe?$AAF?$AAr?$AAo?$AAm?$AAB?$AAo?$AAo?$AAt?$AAM?$AAe?$AAd?$AAi?$AAa?$AA?3@ 00014538     nand.obj
 0001:00003598       ??_C@_1HC@CDFDJJMD@?$AAE?$AAR?$AAR?$AAO?$AAR?$AA?3?$AA?5?$AAW?$AAr?$AAi?$AAt?$AAe?$AAR?$AAa?$AAw?$AAI?$AAm?$AAa?$AAg?$AAe?$AAT?$AAo?$AAB?$AAo?$AAo?$AAt?$AAM?$AAe?$AAd?$AAi?$AAa?$AA?3@ 00014598     nand.obj
 0001:0000360c       ??_C@_1DI@NDJOHNCP@?$AA?$CL?$AAR?$AAe?$AAa?$AAd?$AAO?$AAS?$AAI?$AAm?$AAa?$AAg?$AAe?$AAF?$AAr?$AAo?$AAm?$AAB?$AAo?$AAo?$AAt?$AAM?$AAe?$AAd?$AAi?$AAa?$AA?$AN?$AA?6?$AA?$AA@ 0001460c     nand.obj
 0001:00003644       ??_C@_1DI@LKFDKOOB@?$AA_?$AAW?$AAr?$AAi?$AAt?$AAe?$AAR?$AAa?$AAw?$AAI?$AAm?$AAa?$AAg?$AAe?$AAT?$AAo?$AAB?$AAo?$AAo?$AAt?$AAM?$AAe?$AAd?$AAi?$AAa?$AA?$AN?$AA?6?$AA?$AA@ 00014644     nand.obj
 0001:00003680       ??_C@_1FG@NHKDFGIM@?$AAW?$AAr?$AAi?$AAt?$AAe?$AAD?$AAa?$AAt?$AAa?$AA?3?$AA?5?$AAf?$AAa?$AAi?$AAl?$AAe?$AAd?$AA?5?$AAt?$AAo?$AA?5?$AAw?$AAr?$AAi?$AAt?$AAe?$AA?5?$AAb?$AAl?$AAo?$AAc?$AAk@ 00014680     nand.obj
 0001:000036d8       ??_C@_1FG@CAMINGHI@?$AAW?$AAr?$AAi?$AAt?$AAe?$AAD?$AAa?$AAt?$AAa?$AA?3?$AA?5?$AAf?$AAa?$AAi?$AAl?$AAe?$AAd?$AA?5?$AAt?$AAo?$AA?5?$AAe?$AAr?$AAa?$AAs?$AAe?$AA?5?$AAb?$AAl?$AAo?$AAc?$AAk@ 000146d8     nand.obj
 0001:00003730       ??_C@_1FE@NBAAJHD@?$AAW?$AAr?$AAi?$AAt?$AAe?$AAD?$AAa?$AAt?$AAa?$AA?3?$AA?5?$AAf?$AAa?$AAi?$AAl?$AAe?$AAd?$AA?5?$AAt?$AAo?$AA?5?$AAr?$AAe?$AAa?$AAd?$AA?5?$AAb?$AAl?$AAo?$AAc?$AAk?$AA?5@ 00014730     nand.obj
 0001:00003784       ??_C@_1CC@JGGMIGND@?$AAd?$AAw?$AAB?$AAl?$AAo?$AAc?$AAk?$AA?$CI?$AA0?$AAx?$AA?$CF?$AAx?$AA?$CJ?$AA?5?$AAX?$AA?5?$AA?$AA@ 00014784     nand.obj
 0001:000037a8       ??_C@_1EG@MKKAFPOF@?$AAg?$AA_?$AAF?$AAl?$AAa?$AAs?$AAh?$AAI?$AAn?$AAf?$AAo?$AA?4?$AAw?$AAS?$AAe?$AAc?$AAt?$AAo?$AAr?$AAs?$AAP?$AAe?$AAr?$AAB?$AAl?$AAo?$AAc?$AAk?$AA?$CI?$AA0?$AAx?$AA?$CF@ 000147a8     nand.obj
 0001:000037f0       ??_C@_1BG@KJBDIJJH@?$AA?5?$AA?$DN?$AA?5?$AA0?$AAx?$AA?$CF?$AAx?$AA?5?$AA?$AN?$AA?6?$AA?$AA@ 000147f0     nand.obj
 0001:00003808       ??_C@_1DA@NHBBLHAC@?$AAd?$AAw?$AAI?$AAm?$AAa?$AAg?$AAe?$AAL?$AAe?$AAn?$AAg?$AAt?$AAh?$AA?5?$AA?$DN?$AA?5?$AA0?$AAx?$AA?$CF?$AAx?$AA?5?$AA?$AN?$AA?6?$AA?$AA@ 00014808     nand.obj
 0001:00003838       ??_C@_1CM@KEGNMNKF@?$AAd?$AAw?$AAN?$AAu?$AAm?$AAB?$AAl?$AAo?$AAc?$AAk?$AAs?$AA?5?$AA?$DN?$AA?5?$AA0?$AAx?$AA?$CF?$AAx?$AA?5?$AA?$AN?$AA?6?$AA?$AA@ 00014838     nand.obj
 0001:00003868       ??_C@_1FM@MMAGEFKH@?$AAW?$AAA?$AAR?$AAN?$AA?3?$AA?5?$AAW?$AAr?$AAi?$AAt?$AAe?$AAR?$AAa?$AAw?$AAI?$AAm?$AAa?$AAg?$AAe?$AAT?$AAo?$AAB?$AAo?$AAo?$AAt?$AAM?$AAe?$AAd?$AAi?$AAa?$AA?3?$AA?5@ 00014868     nand.obj
 0001:000038c4       ??_C@_1DI@MCOHEACK@?$AA?$CL?$AAW?$AAr?$AAi?$AAt?$AAe?$AAR?$AAa?$AAw?$AAI?$AAm?$AAa?$AAg?$AAe?$AAT?$AAo?$AAB?$AAo?$AAo?$AAt?$AAM?$AAe?$AAd?$AAi?$AAa?$AA?$AN?$AA?6?$AA?$AA@ 000148c4     nand.obj
 0001:000039d8       ??_C@_0CG@PNKAFPKG@Invalid?5VA?5?$CI0x?$CF08x?$CJ?5return?5?$CI0x?$CF0@ 000149d8     usb.lib
 0001:00003a00       ??_C@_0L@CHBPMCC@?$FLUE?3G?$DPD?$FN?$AN?6?$AA@ 00014a00     usb.lib
 0001:00003a0c       ??_C@_09PJMBNCBJ@?$FLGDE10?$FN?$AN?6?$AA@ 00014a0c     usb.lib
 0001:00003a18       ??_C@_09DCJNABLM@?$FLGDE00?$FN?$AN?6?$AA@ 00014a18     usb.lib
 0001:00003a24       ??_C@_08FKLMIFA@?$FLGDI1?$FN?$AN?6?$AA@ 00014a24     usb.lib
 0001:00003a30       ??_C@_08DIMLOBOA@?$FLGDI0?$FN?$AN?6?$AA@ 00014a30     usb.lib
 0001:00003a3c       ??_C@_0BA@GJCFKEHM@?$FLUE?3SETUP?$DN?$CFx?$FN?$AN?6?$AA@ 00014a3c     usb.lib
 0001:00003a4c       ??_C@_0N@IMFBBLKL@?$FLUE?3STRI?$DP?$FN?$AN?6?$AA@ 00014a4c     usb.lib
 0001:00003a5c       ??_C@_07BJEHFKBF@?$FLGDI?$FN?$AN?6?$AA@ 00014a5c     usb.lib
 0001:00003a64       ??_C@_0M@CHAOLCOM@?$FLUE?3GDE?$DP?$FN?$AN?6?$AA@ 00014a64     usb.lib
 0001:00003a70       ??_C@_07NMLHLHBE@?$FLGDE?$FN?$AN?6?$AA@ 00014a70     usb.lib
 0001:00003a78       ??_C@_0L@ONJGNAPO@?$FLUE?3GD?$DP?$FN?$AN?6?$AA@ 00014a78     usb.lib
 0001:00003a84       ??_C@_09LIHMHIN@?$FLSTALL?$FN?$AN?6?$AA@ 00014a84     usb.lib
 0001:00003a90       ??_C@_1DA@BBOHBBNH@?$AA?9?$AAO?$AAA?$AAL?$AAV?$AAA?$AAt?$AAo?$AAP?$AAA?$AA?$CI?$AAp?$AAa?$AA?5?$AA?$DN?$AA?5?$AA0?$AAx?$AA?$CF?$AAx?$AA?$CJ?$AA?$AN?$AA?6?$AA?$AA@ 00014a90     oal_memory_s3c2440a:memory.obj
 0001:00003ac0       ??_C@_1GE@IPLNFFII@?$AAE?$AAR?$AAR?$AAO?$AAR?$AA?3?$AAO?$AAA?$AAL?$AAV?$AAA?$AAt?$AAo?$AAP?$AAA?$AA?3?$AA?5?$AAi?$AAn?$AAv?$AAa?$AAl?$AAi?$AAd?$AA?5?$AAv?$AAi?$AAr?$AAt?$AAu?$AAa?$AAl@ 00014ac0     oal_memory_s3c2440a:memory.obj
 0001:00003b24       ??_C@_1CK@LKNIEAFP@?$AA?$CL?$AAO?$AAA?$AAL?$AAV?$AAA?$AAt?$AAo?$AAP?$AAA?$AA?$CI?$AA0?$AAx?$AA?$CF?$AA0?$AA8?$AAx?$AA?$CJ?$AA?$AN?$AA?6?$AA?$AA@ 00014b24     oal_memory_s3c2440a:memory.obj
 0001:00003be0       ??_C@_0CG@IHIMJOIA@?9OALKitlCreateName?$CIpBuffer?5?$DN?5?8?$CFh@ 00014be0     oal_kitl:name.obj
 0001:00003c08       ??_C@_0CM@BCMDHFLI@?$CLOALKitlCreateName?$CI?8?$CFhs?8?0?50x?$CF04x@ 00014c08     oal_kitl:name.obj
 0001:00003de8       ??_C@_1O@INIEDEDF@?$AA?$CI?$AAN?$AAU?$AAL?$AAL?$AA?$CJ?$AA?$AA@ 00014de8     oal_blnk:format.obj
 0001:00003df8       ??_C@_06LHGEHABH@?$CINULL?$CJ?$AA@ 00014df8     oal_blnk:format.obj
 0001:00003e00       ??_C@_0M@CDHNGIPM@?$CFu?4?$CFu?4?$CFu?4?$CFu?$AA@ 00014e00     oal_blcommon:format.obj
 0001:00003ea0       pTOC                       00014ea0     oal_blcommon:blcommon.obj
 0001:00003ea8       NKSignon                   00014ea8     oal_blcommon:blcommon.obj
 0001:00003f0c       ??_C@_0DJ@LFHEGALA@ERROR?3?5Checksum?5failure?5?$CIexpecte@ 00014f0c     oal_blcommon:blcommon.obj
 0001:00003f48       ??_C@_0CH@CAKKBBEC@?$AN?6Unable?5to?5read?5add?5?$CL?5size?5mess@ 00014f48     oal_blcommon:blcommon.obj
 0001:00003f70       ??_C@_0CG@OHNGFBLA@?$AN?6Unable?5to?5read?5CS?52?5byte?5messa@ 00014f70     oal_blcommon:blcommon.obj
 0001:00003f98       ??_C@_0DI@FDIIHFBA@?$CK?$CK?$CK?$CK?$CK?$CK?5Checksum?5failure?5on?5recor@ 00014f98     oal_blcommon:blcommon.obj
 0001:00003fd0       ??_C@_0DD@KHJBCIED@?$CK?$CK?$CK?$CK?$CK?$CK?5Data?5record?5?$CFd?5corrupted?0@ 00014fd0     oal_blcommon:blcommon.obj
 0001:00004004       ??_C@_0CO@PFLGIDFG@ERROR?3?5failed?5when?5reading?5raw?5b@ 00015004     oal_blcommon:blcommon.obj
 0001:00004034       ??_C@_0BP@OAODHDCP@Invalid?5Flash?5Address?1Length?$AN?6?$AA@ 00015034     oal_blcommon:blcommon.obj
 0001:00004054       ??_C@_0CC@DNECAMLM@?$CBOEMVERIFYMEMORY?3?5Invalid?5image?$AN@ 00015054     oal_blcommon:blcommon.obj
 0001:00004078       ??_C@_0CE@NKAMCDHO@Unable?5to?5read?5image?5start?1lengt@ 00015078     oal_blcommon:blcommon.obj
 0001:000040a0       ??_C@_0OD@KDDPDDNI@ERROR?3?5The?5X000FF?5packet?5is?5an?5o@ 000150a0     oal_blcommon:blcommon.obj
 0001:00004184       ??_C@_0DC@DIPHDPNA@?$AN?6Unable?5to?5read?5download?5manife@ 00015184     oal_blcommon:blcommon.obj
 0001:000041b8       ??_C@_0DL@LOHCPBAG@?$AN?6Download?5manifest?5packet?5faile@ 000151b8     oal_blcommon:blcommon.obj
 0001:000041f4       ??_C@_0CP@IEFPGDLP@?$AN?6Unable?5to?5read?5download?5manife@ 000151f4     oal_blcommon:blcommon.obj
 0001:00004224       ??_C@_0CE@EDPMKJBP@?$AN?6Unable?5to?5read?5image?5signature@ 00015224     oal_blcommon:blcommon.obj
 0001:00004248       ??_C@_0BD@PHLGNLDI@rom_offset?$DN0x?$CFx?4?$AN?6?$AA@ 00015248     oal_blcommon:blcommon.obj
 0001:0000425c       ??_C@_0DA@FJNFJMPA@Read?5Bin?5Files?5StartAddr?30x?$CFx?5?$DL?5@ 0001525c     oal_blcommon:blcommon.obj
 0001:0000428c       ??_C@_07MMNKOBGG@B000FF?6?$AA@ 0001528c     oal_blcommon:blcommon.obj
 0001:00004294       ??_C@_07CBKBMMIF@X000FF?6?$AA@ 00015294     oal_blcommon:blcommon.obj
 0001:0000429c       ??_C@_07JLHFPECJ@N000FF?6?$AA@ 0001529c     oal_blcommon:blcommon.obj
 0001:000042a4       ??_C@_0BK@FGECAOMC@?$ANAddr?3?50x?$CFx?5?$DL?5Size?3?50x?$CFx?6?$AA@ 000152a4     oal_blcommon:blcommon.obj
 0001:000042c0       ??_C@_0CN@JJPFOKPN@?6USB?5host?5is?5connected?4?5Waiting?5@ 000152c0     oal_blcommon:blcommon.obj
 0001:000042f0       ??_C@_0CA@JDLALBNC@USB?5host?5is?5not?5connected?5yet?4?6?$AA@ 000152f0     oal_blcommon:blcommon.obj
 0001:00004310       ??_C@_0BI@OCFAEGPK@ROMHDR?5at?5Address?5?$CFXh?$AN?6?$AA@ 00015310     oal_blcommon:blcommon.obj
 0001:00004328       ??_C@_1FG@HIEDLMJK@?$AAL?$AAa?$AAs?$AAt?$AAL?$AAo?$AAg?$AAS?$AAe?$AAc?$AAt?$AAo?$AAr?$AA?3?$AA?5?$AAL?$AAa?$AAs?$AAt?$AA?5?$AAl?$AAo?$AAg?$AA?5?$AAs?$AAe?$AAc?$AAt?$AAo?$AAr?$AA?5?$AAi@ 00015328     bootpart:bootpart.obj
 0001:00004380       ??_C@_1FE@KKDNCOE@?$AAL?$AAo?$AAg?$AA2?$AAP?$AAh?$AAy?$AAs?$AA?3?$AA?5?$AAM?$AAB?$AAR?$AA?5?$AAs?$AAe?$AAc?$AAt?$AAo?$AAr?$AA?5?$AAn?$AAu?$AAm?$AAb?$AAe?$AAr?$AA?5?$AAi?$AAs?$AA?5?$AAi@ 00015380     bootpart:bootpart.obj
 0001:000043d8       ??_C@_1IE@OINMAGAB@?$AAF?$AAi?$AAn?$AAd?$AAF?$AAr?$AAe?$AAe?$AAS?$AAe?$AAc?$AAt?$AAo?$AAr?$AA?3?$AA?5?$AAF?$AAr?$AAe?$AAe?$AAS?$AAe?$AAc?$AAt?$AAo?$AAr?$AA?5?$AAi?$AAs?$AA?3?$AA?5?$AA0@ 000153d8     bootpart:bootpart.obj
 0001:00004460       ??_C@_1GA@DCOIOOLE@?$AAR?$AAe?$AAa?$AAd?$AAD?$AAa?$AAt?$AAa?$AA?3?$AA?5?$AAc?$AAo?$AAr?$AAr?$AAu?$AAp?$AAt?$AA?5?$AAp?$AAa?$AAr?$AAt?$AAi?$AAt?$AAi?$AAo?$AAn?$AA?4?$AA?5?$AA?5?$AAR?$AAe@ 00015460     bootpart:bootpart.obj
 0001:000044c0       ??_C@_1FE@BLILJBI@?$AAR?$AAe?$AAa?$AAd?$AAD?$AAa?$AAt?$AAa?$AA?3?$AA?5?$AAf?$AAa?$AAi?$AAl?$AAe?$AAd?$AA?5?$AAt?$AAo?$AA?5?$AAr?$AAe?$AAa?$AAd?$AA?5?$AAs?$AAe?$AAc?$AAt?$AAo?$AAr?$AA?5@ 000154c0     bootpart:bootpart.obj
 0001:00004518       ??_C@_1GE@PDINMOFA@?$AAR?$AAe?$AAa?$AAd?$AAD?$AAa?$AAt?$AAa?$AA?3?$AA?5?$AAt?$AAr?$AAy?$AAi?$AAn?$AAg?$AA?5?$AAt?$AAo?$AA?5?$AAr?$AAe?$AAa?$AAd?$AA?5?$AAp?$AAa?$AAs?$AAt?$AA?5?$AAe?$AAn@ 00015518     bootpart:bootpart.obj
 0001:00004580       ??_C@_1JE@FOLOFLFD@?$AAB?$AAP?$AA_?$AAW?$AAr?$AAi?$AAt?$AAe?$AAD?$AAa?$AAt?$AAa?$AA?5?$AAF?$AAa?$AAi?$AAl?$AAs?$AA?4?$AA?5?$AA?5?$AAp?$AAb?$AAB?$AAu?$AAf?$AAf?$AAe?$AAr?$AA?5?$AA?$DN?$AA?5@ 00015580     bootpart:bootpart.obj
 0001:00004618       ??_C@_1GC@COJGGABB@?$AAW?$AAr?$AAi?$AAt?$AAe?$AAD?$AAa?$AAt?$AAa?$AA?3?$AA?5?$AAc?$AAo?$AAr?$AAr?$AAu?$AAp?$AAt?$AA?5?$AAp?$AAa?$AAr?$AAt?$AAi?$AAt?$AAi?$AAo?$AAn?$AA?4?$AA?5?$AA?5?$AAR@ 00015618     bootpart:bootpart.obj
 0001:00004680       ??_C@_1GI@PABNOBIB@?$AAW?$AAr?$AAi?$AAt?$AAe?$AAD?$AAa?$AAt?$AAa?$AA?3?$AA?5?$AAt?$AAr?$AAy?$AAi?$AAn?$AAg?$AA?5?$AAt?$AAo?$AA?5?$AAw?$AAr?$AAi?$AAt?$AAe?$AA?5?$AAp?$AAa?$AAs?$AAt?$AA?5@ 00015680     bootpart:bootpart.obj
 0001:000046e8       ??_C@_1FE@GECJMGHN@?$AAW?$AAr?$AAi?$AAt?$AAe?$AAD?$AAa?$AAt?$AAa?$AA?3?$AA?5?$AAS?$AAt?$AAa?$AAr?$AAt?$AA?5?$AA?$DN?$AA?5?$AA0?$AAx?$AA?$CF?$AAx?$AA?0?$AA?5?$AAL?$AAe?$AAn?$AAg?$AAt?$AAh?$AA?5@ 000156e8     bootpart:bootpart.obj
 0001:00004740       ??_C@_1GI@JEFLONOC@?$AAB?$AAP?$AA_?$AAI?$AAn?$AAi?$AAt?$AA?5?$AAF?$AAa?$AAi?$AAl?$AAs?$AA?5?$AAb?$AAu?$AAf?$AAf?$AAe?$AAr?$AA?5?$AAs?$AAi?$AAz?$AAe?$AA?5?$AA?$DN?$AA?5?$AA?$CF?$AAx?$AA?5?$AA?$DM@ 00015740     bootpart:bootpart.obj
 0001:000047a8       ??_C@_1EK@EPBADBPH@?$AAB?$AAP?$AA_?$AAI?$AAn?$AAi?$AAt?$AA?5?$AAF?$AAa?$AAi?$AAl?$AAs?$AA?5?$AAF?$AAM?$AAD?$AA_?$AAG?$AAe?$AAt?$AAI?$AAn?$AAf?$AAo?$AA?5?$AAf?$AAa?$AAi?$AAl?$AAs?$AA?$CB@ 000157a8     bootpart:bootpart.obj
 0001:000047f8       ??_C@_1EG@DJFOPAAE@?$AAB?$AAP?$AA_?$AAI?$AAn?$AAi?$AAt?$AA?5?$AAF?$AAa?$AAi?$AAl?$AAs?$AA?5?$AAN?$AAo?$AA?5?$AAm?$AAe?$AAm?$AAo?$AAr?$AAy?$AA?5?$AAf?$AAa?$AAi?$AAl?$AAs?$AA?$CB?$AA?$CB?$AA?$CB@ 000157f8     bootpart:bootpart.obj
 0001:00004840       ??_C@_1GC@MDNPPGID@?$AAC?$AAr?$AAe?$AAa?$AAt?$AAe?$AAP?$AAa?$AAr?$AAt?$AAi?$AAt?$AAi?$AAo?$AAn?$AA?3?$AA?5?$AAc?$AAo?$AAu?$AAl?$AAd?$AA?5?$AAn?$AAo?$AAt?$AA?5?$AAw?$AAr?$AAi?$AAt?$AAe@ 00015840     bootpart:bootpart.obj
 0001:000048a8       ??_C@_1FI@BIPOHIIN@?$AAC?$AAr?$AAe?$AAa?$AAt?$AAe?$AAP?$AAa?$AAr?$AAt?$AAi?$AAt?$AAi?$AAo?$AAn?$AA?3?$AA?5?$AAe?$AAr?$AAr?$AAo?$AAr?$AA?5?$AAe?$AAr?$AAa?$AAs?$AAi?$AAn?$AAg?$AA?5?$AAb@ 000158a8     bootpart:bootpart.obj
 0001:00004900       ??_C@_1DM@DFAJNBPM@?$AAW?$AAr?$AAi?$AAt?$AAe?$AAM?$AAB?$AAR?$AA?3?$AA?5?$AAM?$AAB?$AAR?$AA?5?$AAb?$AAl?$AAo?$AAc?$AAk?$AA?5?$AA?$DN?$AA?5?$AA0?$AAx?$AA?$CF?$AAx?$AA?4?$AA?$AN?$AA?6?$AA?$AA@ 00015900     bootpart:bootpart.obj
 0001:00004940       ??_C@_1FG@DBMGKLBK@?$AAC?$AAr?$AAe?$AAa?$AAt?$AAe?$AAP?$AAa?$AAr?$AAt?$AAi?$AAt?$AAi?$AAo?$AAn?$AA?3?$AA?5?$AAc?$AAa?$AAn?$AA?8?$AAt?$AA?5?$AAm?$AAa?$AAr?$AAk?$AA?5?$AAs?$AAe?$AAc?$AAt@ 00015940     bootpart:bootpart.obj
 0001:00004998       ??_C@_1FK@OCFELNLC@?$AAC?$AAr?$AAe?$AAa?$AAt?$AAe?$AAP?$AAa?$AAr?$AAt?$AAi?$AAt?$AAi?$AAo?$AAn?$AA?3?$AA?5?$AAS?$AAt?$AAa?$AAr?$AAt?$AA?5?$AA?$DN?$AA?5?$AA0?$AAx?$AA?$CF?$AAx?$AA?0?$AA?5?$AAN@ 00015998     bootpart:bootpart.obj
 0001:000049f8       ??_C@_1MC@GGEKNHBL@?$AAC?$AAr?$AAe?$AAa?$AAt?$AAe?$AAP?$AAa?$AAr?$AAt?$AAi?$AAt?$AAi?$AAo?$AAn?$AA?3?$AA?5?$AAs?$AAe?$AAc?$AAt?$AAo?$AAr?$AAs?$AA?5?$AA?$FL?$AA0?$AAx?$AA?$CF?$AAx?$AA?0?$AA?5@ 000159f8     bootpart:bootpart.obj
 0001:00004ac0       ??_C@_1JG@DAIKJDLL@?$AAC?$AAr?$AAe?$AAa?$AAt?$AAe?$AAP?$AAa?$AAr?$AAt?$AAi?$AAt?$AAi?$AAo?$AAn?$AA?3?$AA?5?$AAN?$AAu?$AAm?$AA?5?$AAs?$AAe?$AAc?$AAt?$AAo?$AAr?$AAs?$AA?5?$AAs?$AAe?$AAt@ 00015ac0     bootpart:bootpart.obj
 0001:00004b58       ??_C@_1FG@DOPHBIDL@?$AAC?$AAr?$AAe?$AAa?$AAt?$AAe?$AAP?$AAa?$AAr?$AAt?$AAi?$AAt?$AAi?$AAo?$AAn?$AA?3?$AA?5?$AAc?$AAa?$AAn?$AA?8?$AAt?$AA?5?$AAf?$AAi?$AAn?$AAd?$AA?5?$AAf?$AAr?$AAe?$AAe@ 00015b58     bootpart:bootpart.obj
 0001:00004bb0       ??_C@_1GG@GEEDMMEO@?$AAC?$AAr?$AAe?$AAa?$AAt?$AAe?$AAP?$AAa?$AAr?$AAt?$AAi?$AAt?$AAi?$AAo?$AAn?$AA?3?$AA?5?$AAE?$AAn?$AAt?$AAe?$AAr?$AA?5?$AAC?$AAr?$AAe?$AAa?$AAt?$AAe?$AAP?$AAa?$AAr@ 00015bb0     bootpart:bootpart.obj
 0001:00004c18       ??_C@_1EC@CKKDNMHB@?$AAB?$AAP?$AA_?$AAF?$AAa?$AAs?$AAt?$AAL?$AAo?$AAw?$AAL?$AAe?$AAv?$AAe?$AAl?$AAF?$AAo?$AAr?$AAm?$AAa?$AAt?$AA?3?$AA?5?$AAD?$AAo?$AAn?$AAe?$AA?4?$AA?$AN?$AA?6?$AA?$AN?$AA?6@ 00015c18     bootpart:bootpart.obj
 0001:00004c60       ??_C@_1FA@EMELLLKA@?$AAB?$AAP?$AA_?$AAF?$AAa?$AAs?$AAt?$AAL?$AAo?$AAw?$AAL?$AAe?$AAv?$AAe?$AAl?$AAF?$AAo?$AAr?$AAm?$AAa?$AAt?$AA?3?$AA?5?$AAn?$AAo?$AA?5?$AAg?$AAo?$AAo?$AAd?$AA?5?$AAb@ 00015c60     bootpart:bootpart.obj
 0001:00004cb0       ??_C@_1FO@MCOINHGJ@?$AAF?$AAo?$AAr?$AAm?$AAa?$AAt?$AA?5?$AAT?$AAQ?$AA2?$AA4?$AA4?$AA0?$AA?5?$AAN?$AAa?$AAn?$AAd?$AA?5?$AAF?$AAl?$AAa?$AAs?$AAh?$AA?3?$AA?5?$AA?4?$AA?4?$AA?4?$AAe?$AAr?$AAa@ 00015cb0     bootpart:bootpart.obj
 0001:00004d10       ??_C@_1JC@MCFNAPML@?$AAF?$AAo?$AAr?$AAm?$AAa?$AAt?$AA?5?$AAT?$AAQ?$AA2?$AA4?$AA4?$AA0?$AA?5?$AAN?$AAa?$AAn?$AAd?$AA?5?$AAF?$AAl?$AAa?$AAs?$AAh?$AA?3?$AA?5?$AAu?$AAn?$AAa?$AAb?$AAl?$AAe@ 00015d10     bootpart:bootpart.obj
 0001:00004da8       ??_C@_1HM@LHFHDODP@?$AAF?$AAo?$AAr?$AAm?$AAa?$AAt?$AA?5?$AAT?$AAQ?$AA2?$AA4?$AA4?$AA0?$AA?5?$AAN?$AAa?$AAn?$AAd?$AA?5?$AAF?$AAl?$AAa?$AAs?$AAh?$AA?3?$AA?5?$AAp?$AAr?$AAe?$AAs?$AAe?$AAr@ 00015da8     bootpart:bootpart.obj
 0001:00004e28       ??_C@_1IG@NLIDGGE@?$AAF?$AAo?$AAr?$AAm?$AAa?$AAt?$AA?5?$AAT?$AAQ?$AA2?$AA4?$AA4?$AA0?$AA?5?$AAN?$AAa?$AAn?$AAd?$AA?5?$AAF?$AAl?$AAa?$AAs?$AAh?$AA?3?$AA?5?$AAf?$AAo?$AAu?$AAn?$AAd?$AA?5@ 00015e28     bootpart:bootpart.obj
 0001:00004eb0       ??_C@_1GA@LDLCCFNN@?$AAE?$AAn?$AAt?$AAe?$AAr?$AA?5?$AAT?$AAQ?$AA2?$AA4?$AA4?$AA0?$AA?5?$AAF?$AAa?$AAs?$AAt?$AAL?$AAo?$AAw?$AAL?$AAe?$AAv?$AAe?$AAl?$AAF?$AAo?$AAr?$AAm?$AAa?$AAt?$AA?5@ 00015eb0     bootpart:bootpart.obj
 0001:00004f10       ??_C@_1GC@PMFDHBOJ@?$AAO?$AAp?$AAe?$AAn?$AAP?$AAa?$AAr?$AAt?$AAi?$AAt?$AAi?$AAo?$AAn?$AA?3?$AA?5?$AAI?$AAn?$AAv?$AAa?$AAl?$AAi?$AAd?$AA?5?$AAM?$AAB?$AAR?$AA?4?$AA?5?$AA?5?$AAF?$AAo?$AAr@ 00015f10     bootpart:bootpart.obj
 0001:00004f78       ??_C@_1II@LNLPMCGG@?$AAO?$AAp?$AAe?$AAn?$AAP?$AAa?$AAr?$AAt?$AAi?$AAt?$AAi?$AAo?$AAn?$AA?3?$AA?5?$AAI?$AAn?$AAv?$AAa?$AAl?$AAi?$AAd?$AA?5?$AAM?$AAB?$AAR?$AA?4?$AA?5?$AA?5?$AAC?$AAa?$AAn@ 00015f78     bootpart:bootpart.obj
 0001:00005090       ??_C@_0CO@ILGKAEEB@An?5OACK?5packet?5is?5the?5proper?5ack@ 00016090     eboot:tftpd.obj
 0001:000050c0       ??_C@_07JPIGAOKK@blksize?$AA@ 000160c0     eboot:tftpd.obj
 0001:000050c8       ??_C@_0FD@OCECBKGJ@There?5must?5be?5an?5even?5number?0?5an@ 000160c8     eboot:tftpd.obj
 0001:0000511c       ??_C@_0DB@LKOCKFPL@Illegal?5TFTP?5Operation?5?9?5Read?1Wr@ 0001611c     eboot:tftpd.obj
 0001:00005150       ??_C@_0CM@OBFBLHOG@There?5were?5no?5options?5detected?5i@ 00016150     eboot:tftpd.obj
 0001:00005180       ??_C@_0FJ@NDFKPFHG@Illegal?5TFTP?5Option?5?9?5An?5option?5@ 00016180     eboot:tftpd.obj
 0001:000051dc       ??_C@_05DMMIBICK@?5?$CFd?4?6?$AA@ 000161dc     eboot:tftpd.obj
 0001:000051e4       ??_C@_0DO@FNNPCMEI@with?5a?5value?5that?5is?5out?5of?5rang@ 000161e4     eboot:tftpd.obj
 0001:00005224       ??_C@_0DL@CJPGPHL@with?5a?5value?5that?5is?5in?5range?4?6B@ 00016224     eboot:tftpd.obj
 0001:00005260       ??_C@_0BK@PFHMOFCD@The?5option?8s?5value?5is?5?$CFs?6?$AA@ 00016260     eboot:tftpd.obj
 0001:0000527c       ??_C@_0CH@HOPLKCLP@This?5TFTP?5packet?5contains?5?$CFd?5opt@ 0001627c     eboot:tftpd.obj
 0001:000052a8       ??_C@_0EC@OALIGNGC@We?5currently?5only?5look?5at?5the?5fi@ 000162a8     eboot:tftpd.obj
 0001:000052ec       ??_C@_0CB@FLKGPIDN@The?5packet?8s?5option?5name?5is?5?$CFs?4?6@ 000162ec     eboot:tftpd.obj
 0001:00005310       ??_C@_0CG@JBBJIFDI@You?5must?5access?5files?5in?5binary?5@ 00016310     eboot:tftpd.obj
 0001:00005338       ??_C@_05IIBPGMLM@octet?$AA@ 00016338     eboot:tftpd.obj
 0001:00005340       ??_C@_0BG@GIKNIKEH@Locked?5Down?5Link?5?$CFd?$AN?6?$AA@ 00016340     eboot:tftpd.obj
 0001:00005358       ??_C@_0BF@JDGNCBEC@Src?5IP?5?$CFs?5Port?5?$CFH?5?5?5?$AA@ 00016358     eboot:tftpd.obj
 0001:00005370       ??_C@_0BF@MOPBEBEN@Dest?5IP?5?$CFs?5Port?5?$CFH?$AN?6?$AA@ 00016370     eboot:tftpd.obj
 0001:00005388       ??_C@_0CL@HCAEOMAE@Default?5TFTP?5block?5size?5set?5to?3?5@ 00016388     eboot:tftpd.obj
 0001:000053b4       ??_C@_0DB@OCKCBBAL@No?5Server?5Process?5Associated?5Wit@ 000163b4     eboot:tftpd.obj
 0001:000053e8       ??_C@_0CM@GLFMKKGH@TFTP?5packet?5could?5have?5?$CFd?5name?1v@ 000163e8     eboot:tftpd.obj
 0001:00005414       ??_C@_01EEMJAFIK@?6?$AA@   00016414     eboot:tftpd.obj
 0001:00005418       ??_C@_06CBLHAGFD@?$FLNULL?$FN?$AA@ 00016418     eboot:tftpd.obj
 0001:00005420       ??_C@_02HAOIJKIC@?$CFc?$AA@ 00016420     eboot:tftpd.obj
 0001:00005424       ??_C@_0CC@GNCPKJCA@Packet?5has?5the?5following?5data?3?6?5@ 00016424     eboot:tftpd.obj
 0001:000054d8       ??_C@_0BK@BFELHAIB@EthDown?3?3TFTPD_OPEN?3?3?$CFs?$AN?6?$AA@ 000164d8     eboot:ebsimp.obj
 0001:000054f4       ??_C@_0CF@NJGKJDPK@EthDown?3?3Illegal?5Operation?5Code?5@ 000164f4     eboot:ebsimp.obj
 0001:0000551c       ??_C@_0BN@HCIGGCJK@Server?5Registration?5Failed?$AN?6?$AA@ 0001651c     eboot:ebsimp.obj
 0001:0000553c       ??_C@_0CC@OIEKENJI@EbootSimpleTFTP?5not?5initialized?$AN@ 0001653c     eboot:ebsimp.obj
 0001:00005560       ??_C@_0BM@GELEBJHM@EbootGratuitousARP?5failed?$AN?6?$AA@ 00016560     eboot:ebsimp.obj
 0001:0000557c       ??_C@_0DG@LCJHGIIG@Some?5other?5station?5has?5IP?5Addres@ 0001657c     eboot:ebsimp.obj
 0001:000055b4       ??_C@_0DK@ECECEHHP@No?5ARP?5response?5in?5?$CFd?5seconds?0?5a@ 000165b4     eboot:ebsimp.obj
 0001:000055f0       ??_C@_0CO@EJPPGFNA@DHCP?5server?5is?5not?5responding?5?$CB?$CB@ 000165f0     eboot:ebsimp.obj
 0001:00005620       ??_C@_0BL@PFCEMBID@Error?5On?5InitDHCP?$CI?$CJ?5Call?$AN?6?$AA@ 00016620     eboot:ebsimp.obj
 0001:0000563c       ??_C@_0DG@KEGBCNMH@Some?5other?5station?5has?5IP?5Addres@ 0001663c     eboot:ebsimp.obj
 0001:00005674       ??_C@_0DA@PMFFKPM@Got?5Response?5from?5DHCP?5server?0?5I@ 00016674     eboot:ebsimp.obj
 0001:000056a4       ??_C@_0CB@PCBFMPDH@?9EbootSendBootmeAndWaitForTftp?$AN?6@ 000166a4     eboot:ebsimp.obj
 0001:000056c8       ??_C@_0CB@EEDKKNBN@?$CLEbootSendBootmeAndWaitForTftp?$AN?6@ 000166c8     eboot:ebsimp.obj
 0001:000056ec       ??_C@_08NMEDJLNE@boot?4bin?$AA@ 000166ec     eboot:ebsimp.obj
 0001:00005788       ??_C@_0DJ@MEFFBBAC@TFTP?3?5Desktop?5losing?5ACK?0?5block?5@ 00016788     eboot:tftp.obj
 0001:000057c4       ??_C@_0DC@MHCCPLAO@TFtpStateMachine?3?3TFTP_STATE_CLO@ 000167c4     eboot:tftp.obj
 0001:000057f8       ??_C@_0CH@DEDJGHKF@TFTP?5Error?5Received?5From?5Host?5?$CFX@ 000167f8     eboot:tftp.obj
 0001:00005820       ??_C@_0CG@EEFEGPIL@TftpReceiver?0?5port?3?50x?$CFX?0?5wkp?3?50@ 00016820     eboot:tftp.obj
 0001:00005848       ??_C@_0EA@EBMLKPMN@TFTP?5link?$FL?$CFu?$FN?3?5State?3?$CFu?0?5DestAdd@ 00016848     eboot:tftp.obj
 0001:00005918       ??_C@_0IL@GCFKAKKH@Duplicate?5IP?5Address?5Detected?3?6?9@ 00016918     eboot:udp.obj
 0001:000059a4       ??_C@_0CI@JEPIEHIP@?$CBCheckUDP?3?5UDP?5header?5checksum?5f@ 000169a4     eboot:udp.obj
 0001:000059cc       ??_C@_0CH@KMPJEONK@?$CBCheckUDP?3?5IP?5header?5checksum?5fa@ 000169cc     eboot:udp.obj
 0001:000059f4       ??_C@_0CD@OCEEFKNK@?$CBCheckUDP?3?5Not?5UDP?5?$CIproto?5?$DN?50x?$CFX@ 000169f4     eboot:udp.obj
 0001:00005aa8       ??_C@_0O@DFHLFDCO@netmask?3?5?$CFs?$AN?6?$AA@ 00016aa8     eboot:dhcp.obj
 0001:00005ab8       ??_C@_0DK@EEIOPNMG@ProcessDHCP?$CI?$CJ?3?3DHCP_INIT?3?3SendDH@ 00016ab8     eboot:dhcp.obj
 0001:00005af4       ??_C@_0BL@LBDFFECM@ProcessDHCP?$CI?$CJ?3?3DHCP_INIT?$AN?6?$AA@ 00016af4     eboot:dhcp.obj
 0001:00005b10       ??_C@_0DC@EKKEKBDC@ProcessDHCP?$CI?$CJ?3?3DHCP_SELECTING?3?3S@ 00016b10     eboot:dhcp.obj
 0001:00005b48       ??_C@_0FK@JNLIFC@ProcessDHCP?$CI?$CJ?3?3DHCP_SELECTING?3?3D@ 00016b48     eboot:dhcp.obj
 0001:00005ba8       ??_C@_0FI@KEBKGIEO@ProcessDHCP?$CI?$CJ?3?3DHCP_SELECTING?3?3D@ 00016ba8     eboot:dhcp.obj
 0001:00005c00       ??_C@_0DC@KHEOJACB@?$AN?6ProcessDHCP?$CI?$CJ?3?3DHCP?5IP?5Address@ 00016c00     eboot:dhcp.obj
 0001:00005c34       ??_C@_0BJ@MEOPKMJJ@Lease?5time?3?5?$CFd?5seconds?$AN?6?$AA@ 00016c34     eboot:dhcp.obj
 0001:00005c50       ??_C@_0FI@EHEELHEE@ProcessDHCP?$CI?$CJ?3?3DHCP_REQUESTING?3?3@ 00016c50     eboot:dhcp.obj
 0001:00005ca8       ??_C@_0DE@BHBNDGEJ@ProcessDHCP?$CI?$CJ?5Error?5?9?5No?5DHCP?5Me@ 00016ca8     eboot:dhcp.obj
 0001:00005cdc       ??_C@_0DO@EHKMGFMI@InitDHCP?$CI?$CJ?5Error?5?9?5First?5DHCP?5Op@ 00016cdc     eboot:dhcp.obj
 0001:00005d1c       ??_C@_0CF@NLOHFKBD@InitDHCP?$CI?$CJ?3?3?5Calling?5ProcessDHCP@ 00016d1c     eboot:dhcp.obj
 0001:00005d44       ??_C@_0DB@JKAMMNCP@EbootDHCPRetransmit?$CI?$CJ?3?3Error?5On?5@ 00016d44     eboot:dhcp.obj
 0001:00005d78       ??_C@_0CN@GEBEIIOD@SendDHCP?$CI?$CJ?3?3Error?5On?5DHCPRetrans@ 00016d78     eboot:dhcp.obj
 0001:00005da8       ??_C@_0CG@GEIANEBC@SendDHCP?$CI?$CJ?3?3Error?5On?5SendUDP?$CI?$CJ?5C@ 00016da8     eboot:dhcp.obj
 0001:00005e60       ??_C@_0BD@GIINPDL@Error?5in?5SendUDP?$AN?6?$AA@ 00016e60     eboot:edbg.obj
 0001:00005e74       ??_C@_0CC@IFLECHKJ@Got?5EDBG_CMD_CONFIG?0?5flags?30x?$CFX?$AN@ 00016e74     eboot:edbg.obj
 0001:00005e98       ??_C@_0BH@EBGODALL@Got?5EDBG_CMD_JUMPIMG?$AN?6?$AA@ 00016e98     eboot:edbg.obj
 0001:00005eb0       ??_C@_0EE@BGOJJHDN@TFTP?5download?5started?5previously@ 00016eb0     eboot:edbg.obj
 0001:00005ef4       ??_C@_0BE@MGGELJDD@Sent?5BOOTME?5to?5?$CFs?$AN?6?$AA@ 00016ef4     eboot:edbg.obj
 0001:00005f08       ??_C@_0CI@BKOJILAL@SendBootme?$CI?$CJ?3?3Error?5on?5SendUDP?$CI?$CJ@ 00016f08     eboot:edbg.obj
 0001:00005f30       ??_C@_1FE@GJOOEFCO@?$AAF?$AAM?$AAD?$AA?3?$AA?3?$AAF?$AAM?$AAD?$AA_?$AAI?$AAn?$AAi?$AAt?$AA?5?$AAF?$AAi?$AAr?$AAs?$AAt?$AA?5?$AAB?$AAo?$AAo?$AAt?$AAi?$AAn?$AAg?$AA?5?$AAI?$AAN?$AA?5?$AAO@ 00016f30     nandflash_lib:fmd.obj
 0001:00005f88       ??_C@_1EC@ENKKLJIE@?$AAF?$AAM?$AAD?$AA?3?$AA?3?$AAF?$AAM?$AAD?$AA_?$AAI?$AAn?$AAi?$AAt?$AA?5?$AAS?$AAo?$AAf?$AAt?$AAr?$AAe?$AAs?$AAe?$AAt?$AA?5?$AA?4?$AA?4?$AA?4?$AA?4?$AA?4?$AA?5?$AA?$AN?$AA?6@ 00016f88     nandflash_lib:fmd.obj
 0001:00005fcc       ??_C@_1DG@LLHCAFDD@?$AAF?$AAM?$AAD?$AA?3?$AA?3?$AAF?$AAM?$AAD?$AA_?$AAI?$AAn?$AAi?$AAt?$AA?5?$AAI?$AAP?$AAL?$AA?5?$AA?4?$AA?4?$AA?4?$AA?4?$AA?4?$AA?5?$AA?$AN?$AA?6?$AA?$AA@ 00016fcc     nandflash_lib:fmd.obj
 0001:00006008       ??_C@_1FG@KOPKLKKM@?$AAF?$AAM?$AAD?$AA?3?$AA?3?$AAF?$AAM?$AAD?$AA_?$AAI?$AAn?$AAi?$AAt?$AA?5?$AA?9?$AA?5?$AAp?$AAB?$AAS?$AAP?$AAA?$AAr?$AAg?$AAs?$AA?9?$AA?$DO?$AAn?$AAf?$AAs?$AAb?$AAl?$AAk@ 00017008     nandflash_lib:fmd.obj
 0001:00006060       ??_C@_1GM@FPODKAPJ@?$AAF?$AAM?$AAD?$AA?3?$AA?3?$AAF?$AAM?$AAD?$AA_?$AAI?$AAn?$AAi?$AAt?$AA?5?$AA?9?$AA?5?$AAR?$AAE?$AAA?$AAD?$AA_?$AAR?$AAE?$AAG?$AAI?$AAS?$AAT?$AAE?$AAR?$AA_?$AAB?$AAY@ 00017060     nandflash_lib:fmd.obj
 0001:000060d0       ??_C@_1EG@OPJCCPC@?$AA?$FL?$AAS?$AA2?$AA4?$AA4?$AA0?$AA?5?$AA?3?$AA?5?$AAE?$AAR?$AAR?$AA?$FN?$AA?5?$AAI?$AAD?$AA?5?$AAF?$AAi?$AAn?$AAd?$AAi?$AAn?$AAg?$AA?5?$AAF?$AAa?$AAi?$AAl?$AAu?$AAr?$AAe@ 000170d0     nandflash_lib:fmd.obj
 0001:00006118       ??_C@_1JO@NAKJKKPF@?$AAN?$AAU?$AAM?$AAB?$AAL?$AAO?$AAC?$AAK?$AAS?$AA?5?$AA?3?$AA?5?$AA?$CF?$AAd?$AA?$CI?$AA0?$AAx?$AA?$CF?$AAx?$AA?$CJ?$AA?0?$AA?5?$AAS?$AAE?$AAC?$AAT?$AAO?$AAR?$AAS?$AAP?$AAE?$AAR@ 00017118     nandflash_lib:fmd.obj
 0001:000061b8       ??_C@_1EE@KFMIPOIL@?$AAd?$AAw?$AAP?$AAr?$AAi?$AAm?$AAa?$AAr?$AAy?$AAN?$AAa?$AAn?$AAd?$AAD?$AAe?$AAv?$AAi?$AAc?$AAe?$AA?5?$AA?3?$AA?5?$AA?$CF?$AAd?$AA?$CI?$AA0?$AAx?$AA?$CF?$AAx?$AA?$CJ?$AA?5?$AA?$AN@ 000171b8     nandflash_lib:fmd.obj
 0001:00006200       ??_C@_1HC@GJMLDPDA@?$AAa?$AAs?$AAt?$AAN?$AAa?$AAn?$AAd?$AAS?$AAp?$AAe?$AAc?$AA?$FL?$AAd?$AAw?$AAP?$AAr?$AAi?$AAm?$AAa?$AAr?$AAy?$AAN?$AAa?$AAn?$AAd?$AAD?$AAe?$AAv?$AAi?$AAc?$AAe?$AA?$FN@ 00017200     nandflash_lib:fmd.obj
 0001:00006278       ??_C@_1FA@IMOODEDO@?$AAw?$AAP?$AAR?$AAI?$AAM?$AAA?$AAR?$AAY?$AA_?$AAR?$AAE?$AAA?$AAL?$AA_?$AAN?$AAA?$AAN?$AAD?$AA_?$AAB?$AAL?$AAO?$AAC?$AAK?$AAS?$AA?5?$AA?3?$AA?5?$AA?$CF?$AAd?$AA?$CI?$AA0@ 00017278     nandflash_lib:fmd.obj
 0001:000062c8       ??_C@_1EO@OLFHAOII@?$AA?$FL?$AAF?$AAM?$AAD?$AA_?$AAG?$AAe?$AAt?$AAI?$AAn?$AAf?$AAo?$AA?5?$AA?3?$AA?5?$AAE?$AAR?$AAR?$AA?$FN?$AA?5?$AA_?$AAR?$AAe?$AAa?$AAd?$AAX?$AAI?$AAD?$AA?$CI?$AA?$CJ?$AA?5?$AAE@ 000172c8     nandflash_lib:fmd.obj
 0001:00006318       ??_C@_1HI@CDODNDIL@?$AAN?$AAA?$AAN?$AAD?$AA_?$AAW?$AAr?$AAi?$AAt?$AAe?$AAS?$AAe?$AAc?$AAt?$AAo?$AAr?$AAI?$AAn?$AAf?$AAo?$AA?$CI?$AA?$CJ?$AA?5?$AA?$CD?$AA?$CD?$AA?$CD?$AA?$CD?$AA?$CD?$AA?$CD?$AA?$CD?$AA?$CD?$AA?5@ 00017318     nandflash_lib:fmd.obj
 0001:00006390       ??_C@_1JK@BAHNEMGO@?$AAN?$AAA?$AAN?$AAD?$AA_?$AAW?$AAr?$AAi?$AAt?$AAe?$AAS?$AAe?$AAc?$AAt?$AAo?$AAr?$AAI?$AAn?$AAf?$AAo?$AA?$CI?$AA?$CJ?$AA?5?$AA?$CD?$AA?$CD?$AA?$CD?$AA?$CD?$AA?$CD?$AA?$CD?$AA?$CD?$AA?$CD?$AA?5@ 00017390     nandflash_lib:fmd.obj
 0001:0000642c       ??_C@_1CK@JOILJOGL@?$AAI?$AAn?$AAv?$AAa?$AAl?$AAi?$AAd?$AA?5?$AAp?$AAa?$AAr?$AAa?$AAm?$AAe?$AAt?$AAe?$AAr?$AAs?$AA?$CB?$AA?6?$AA?$AA@ 0001742c     nandflash_lib:fmd.obj
 0001:00006458       ??_C@_1DO@BNKBONNE@?$AAF?$AAM?$AAD?$AA?3?$AA?3?$AAF?$AAM?$AAD?$AA_?$AAS?$AAB?$AA_?$AAR?$AAe?$AAa?$AAd?$AAS?$AAe?$AAc?$AAt?$AAo?$AAr?$AA?5?$AA0?$AAx?$AA?$CF?$AAx?$AA?5?$AA?$AN?$AA?6?$AA?$AA@ 00017458     nandflash_lib:fmd.obj
 0001:00006498       ??_C@_1DE@KBMOHBJC@?$AAs?$AAt?$AAa?$AAr?$AAt?$AAS?$AAe?$AAc?$AAt?$AAo?$AAr?$AAA?$AAd?$AAd?$AAr?$AA?5?$AA?$DN?$AA?5?$AA0?$AAx?$AA?$CF?$AAx?$AA?5?$AA?$AN?$AA?6?$AA?$AA@ 00017498     nandflash_lib:fmd.obj
 0001:000064cc       ??_C@_1CM@LDDCGCAD@?$AAp?$AAB?$AAS?$AAP?$AAA?$AAr?$AAg?$AAs?$AA?9?$AA?$DO?$AAn?$AAf?$AAs?$AAb?$AAl?$AAk?$AA?$DN?$AA?$CF?$AAd?$AA?$AN?$AA?6?$AA?$AA@ 000174cc     nandflash_lib:fmd.obj
 0001:000064f8       ??_C@_1GK@LODCJMCG@?$AAS?$AAB?$AA?$CD?$AA?$CD?$AA?$CD?$AA?$CD?$AA?$CD?$AA?$CD?$AA?$CD?$AA?$CD?$AA?5?$AAE?$AAr?$AAr?$AAo?$AAr?$AA?5?$AAE?$AAr?$AAa?$AAs?$AAi?$AAn?$AAg?$AA?5?$AAb?$AAl?$AAo?$AAc?$AAk?$AA?5?$AA?$CI@ 000174f8     nandflash_lib:fmd.obj
 0001:00006568       ??_C@_1GO@NKGLNICF@?$AAF?$AAM?$AAD?$AA_?$AAW?$AAr?$AAi?$AAt?$AAe?$AAS?$AAe?$AAc?$AAt?$AAo?$AAr?$AA?$CI?$AA?$CJ?$AA?5?$AA?$CD?$AA?$CD?$AA?$CD?$AA?$CD?$AA?$CD?$AA?$CD?$AA?$CD?$AA?$CD?$AA?5?$AAE?$AAr?$AAr?$AAo?$AAr@ 00017568     nandflash_lib:fmd.obj
 0001:000065d8       ??_C@_1JA@DGJBNIIK@?$AAF?$AAM?$AAD?$AA_?$AAW?$AAr?$AAi?$AAt?$AAe?$AAS?$AAe?$AAc?$AAt?$AAo?$AAr?$AA?$CI?$AA?$CJ?$AA?5?$AA?$CD?$AA?$CD?$AA?$CD?$AA?$CD?$AA?$CD?$AA?$CD?$AA?$CD?$AA?$CD?$AA?5?$AAE?$AAr?$AAr?$AAo?$AAr@ 000175d8     nandflash_lib:fmd.obj
 0001:00006668       ??_C@_1FA@HNFOOHCE@?$AA?$CD?$AA?$CD?$AA?$CD?$AA?$CD?$AA?$CD?$AA?$CD?$AA?$CD?$AA?$CD?$AA?5?$AAF?$AAa?$AAi?$AAl?$AAe?$AAd?$AA?5?$AAt?$AAo?$AA?5?$AAm?$AAa?$AAr?$AAk?$AA?5?$AAt?$AAh?$AAe?$AA?5?$AAb?$AAl?$AAo?$AAc@ 00017668     nandflash_lib:fmd.obj
 0001:000066b8       ??_C@_1HM@INJKDHEP@?$AA?$CD?$AA?$CD?$AA?$CD?$AA?$CD?$AA?$CD?$AA?$CD?$AA?$CD?$AA?$CD?$AA?5?$AAF?$AAa?$AAi?$AAl?$AAe?$AAd?$AA?5?$AAt?$AAo?$AA?5?$AAm?$AAa?$AAr?$AAk?$AA?5?$AAt?$AAh?$AAe?$AA?5?$AAb?$AAl?$AAo?$AAc@ 000176b8     nandflash_lib:fmd.obj
 0001:00006734       ??_C@_1DA@DMFPABI@?$AAS?$AAB?$AA_?$AAM?$AAa?$AAr?$AAk?$AAB?$AAl?$AAo?$AAc?$AAk?$AAB?$AAa?$AAd?$AA?5?$AA0?$AAx?$AA?$CF?$AAx?$AA?5?$AA?$AN?$AA?6?$AA?$AA@ 00017734     nandflash_lib:fmd.obj
 0001:00006768       ??_C@_1HO@NOFENAEF@?$AAN?$AAA?$AAN?$AAD?$AA_?$AAL?$AAB?$AA_?$AAW?$AAr?$AAi?$AAt?$AAe?$AAS?$AAe?$AAc?$AAt?$AAo?$AAr?$AAI?$AAn?$AAf?$AAo?$AA?$CI?$AA?$CJ?$AA?5?$AA?$CD?$AA?$CD?$AA?$CD?$AA?$CD?$AA?$CD?$AA?$CD@ 00017768     nandflash_lib:fmd.obj
 0001:000067e8       ??_C@_1KA@MADFDKCH@?$AAN?$AAA?$AAN?$AAD?$AA_?$AAL?$AAB?$AA_?$AAW?$AAr?$AAi?$AAt?$AAe?$AAS?$AAe?$AAc?$AAt?$AAo?$AAr?$AAI?$AAn?$AAf?$AAo?$AA?$CI?$AA?$CJ?$AA?5?$AA?$CD?$AA?$CD?$AA?$CD?$AA?$CD?$AA?$CD?$AA?$CD@ 000177e8     nandflash_lib:fmd.obj
 0001:00006888       ??_C@_1EI@DHEIJEEH@?$AAL?$AAB?$AA?$CD?$AA?$CD?$AA?$CD?$AA?$CD?$AA?$CD?$AA?$CD?$AA?$CD?$AA?$CD?$AA?5?$AAE?$AAr?$AAr?$AAo?$AAr?$AA?5?$AAE?$AAr?$AAa?$AAs?$AAi?$AAn?$AAg?$AA?5?$AAb?$AAl?$AAo?$AAc?$AAk?$AA?5?$AA?$CF@ 00017888     nandflash_lib:fmd.obj
 0001:000068d0       ??_C@_1GK@GDIOGCCE@?$AAL?$AAB?$AA?$CD?$AA?$CD?$AA?$CD?$AA?$CD?$AA?$CD?$AA?$CD?$AA?$CD?$AA?$CD?$AA?5?$AAE?$AAr?$AAr?$AAo?$AAr?$AA?5?$AAE?$AAr?$AAa?$AAs?$AAi?$AAn?$AAg?$AA?5?$AAb?$AAl?$AAo?$AAc?$AAk?$AA?5?$AA?$CI@ 000178d0     nandflash_lib:fmd.obj
 0001:00006940       ??_C@_1HI@PCFDDOLN@?$AA?$CD?$AA?$CD?$AA?$CD?$AA?$CD?$AA?$CD?$AA?$CD?$AA?$CD?$AA?$CD?$AA?5?$AAF?$AAa?$AAi?$AAl?$AAe?$AAd?$AA?5?$AAt?$AAo?$AA?5?$AAm?$AAa?$AAr?$AAk?$AA?5?$AAt?$AAh?$AAe?$AA?5?$AAb?$AAl?$AAo?$AAc@ 00017940     nandflash_lib:fmd.obj
 0001:000069b8       ??_C@_1DA@OINCNHOP@?$AAL?$AAB?$AA_?$AAM?$AAa?$AAr?$AAk?$AAB?$AAl?$AAo?$AAc?$AAk?$AAB?$AAa?$AAd?$AA?5?$AA0?$AAx?$AA?$CF?$AAx?$AA?5?$AA?$AN?$AA?6?$AA?$AA@ 000179b8     nandflash_lib:fmd.obj
 0001:000069e8       ??_C@_1CK@LCCPOAOI@?$AAF?$AAM?$AAD?$AA_?$AAE?$AAr?$AAe?$AAa?$AAs?$AAe?$AAB?$AAl?$AAo?$AAc?$AAk?$AA?5?$AA?$CF?$AAd?$AA?$AN?$AA?6?$AA?$AA@ 000179e8     nandflash_lib:fmd.obj
 0001:00006a38       Launch                     00017a38 f   util.obj
 0001:00006a64       ShowLights                 00017a64 f   util.obj
 0001:00006a6c       main                       00017a6c f   main.obj
 0001:00007738       OEMPlatformInit            00018738 f   main.obj
 0001:00007d5c       OEMPreDownload             00018d5c f   main.obj
 0001:00007f28       OEMReadData                00018f28 f   main.obj
 0001:00007f84       OEMShowProgress            00018f84 f   main.obj
 0001:00007fac       OEMLaunch                  00018fac f   main.obj
 0001:000083a4       OEMVerifyMemory            000193a4 f   main.obj
 0001:00008490       OEMMultiBINNotify          00019490 f   main.obj
 0001:000085d8       GetKernelExtPointer        000195d8 f   main.obj
 0001:00008680       OEMDebugInit               00019680 f   main.obj
 0001:000086bc       OEMInitDebugSerial         000196bc f   debug.obj
 0001:00008868       OEMWriteDebugByte          00019868 f   debug.obj
 0001:000088a4       OEMReadDebugByte           000198a4 f   debug.obj
 0001:000088e4       OEMWriteDebugLED           000198e4 f   debug.obj
 0001:00008914       OEMWriteDebugString        00019914 f   debug.obj
 0001:00008940       InitEthDevice              00019940 f   ether.obj
 0001:00008a90       OEMKitlGetSecs             00019a90 f   ether.obj
 0001:00008bc0       OEMEthGetFrame             00019bc0 f   ether.obj
 0001:00008be8       OEMEthSendFrame            00019be8 f   ether.obj
 0001:00008c58       OEMIsFlashAddr             00019c58 f   flash.obj
 0001:00008c60       OEMMapMemAddr              00019c60 f   flash.obj
 0001:00008cd0       OEMStartEraseFlash         00019cd0 f   flash.obj
 0001:00008cd8       OEMContinueEraseFlash      00019cd8 f   flash.obj
 0001:00008cdc       OEMFinishEraseFlash        00019cdc f   flash.obj
 0001:00008ce4       OEMWriteFlash              00019ce4 f   flash.obj
 0001:00008cec       IsrHandler                 00019cec f   usbs.obj
 0001:00008d04       dm9000_hash_table          00019d04 f   dm9000dbg.obj
 0001:00008e14       DM9000DBG_Init             00019e14 f   dm9000dbg.obj
 0001:00008fc0       DM9000DBG_GetFrame         00019fc0 f   dm9000dbg.obj
 0001:00009064       DM9000DBG_SendFrame        0001a064 f   dm9000dbg.obj
 0001:00009114       VALID_IMAGE_DESCRIPTOR     0001a114 f i nand.obj
 0001:00009160       SetKMode                   0001a160 f   nand.obj
 0001:00009168       ?BootConfigPrint@@YAXXZ    0001a168 f   nand.obj
 0001:00009340       ?ID_Print@@YAXK@Z          0001a340 f   nand.obj
 0001:00009494       TOC_Print                  0001a494 f   nand.obj
 0001:0000954c       TOC_Init                   0001a54c f   nand.obj
 0001:000097a0       EXT_Logo                   0001a7a0 f   nand.obj
 0001:000097e4       TOC_Read                   0001a7e4 f   nand.obj
 0001:0000991c       TOC_Write                  0001a91c f   nand.obj
 0001:00009adc       WriteOSImageToBootMedia    0001aadc f   nand.obj
 0001:0000a1bc       ReadOSImageFromBootMedia   0001b1bc f   nand.obj
 0001:0000a4a8       ?ReadBlock@@YAHKPAEPAU_SectorInfo@@@Z 0001b4a8 f   nand.obj
 0001:0000a528       ?WriteBlock@@YAHKPAEPAU_SectorInfo@@@Z 0001b528 f   nand.obj
 0001:0000a5a8       WriteRawImageToBootMedia   0001b5a8 f   nand.obj
 0001:0000a860       VA2PA                      0001b860 f   usb.lib
 0001:0000a8bc       InitDescriptorTable        0001b8bc f   usb.lib
 0001:0000aa80       InitUSB                    0001ba80 f   usb.lib
 0001:0000acf4       WrPktEp0                   0001bcf4 f   usb.lib
 0001:0000ad30       WrPktEp1                   0001bd30 f   usb.lib
 0001:0000ad6c       RdPktEp3                   0001bd6c f   usb.lib
 0001:0000ada4       PrepareEp1Fifo             0001bda4 f   usb.lib
 0001:0000ae34       Ep1Handler                 0001be34 f   usb.lib
 0001:0000aec4       Ep0Handler                 0001bec4 f   usb.lib
 0001:0000b8a0       ReconfigUsbd               0001c8a0 f   usb.lib
 0001:0000bca8       Isr_Init                   0001cca8 f   usb.lib
 0001:0000bd34       Ep3Handler                 0001cd34 f   usb.lib
 0001:0000be04       DMA2Handler                0001ce04 f   usb.lib
 0001:0000bf08       ConfigEp3DmaMode           0001cf08 f   usb.lib
 0001:0000bffc       UbootReadData              0001cffc f   usb.lib
 0001:0000c41c       IsrUsbd                    0001d41c f   usb.lib
 0001:0000c574       OALPAtoVA                  0001d574 f   oal_memory_s3c2440a:memory.obj
 0001:0000c5f0       OALVAtoPA                  0001d5f0 f   oal_memory_s3c2440a:memory.obj
 0001:0000c6e4       OALKitlCreateName          0001d6e4 f   oal_kitl:name.obj
 0001:0000c81c       NKDbgPrintfW               0001d81c f   oal_blnk:wrappers.obj
 0001:0000c8dc       NKwvsprintfW               0001d8dc f   oal_blnk:format.obj
 0001:0000d2dc       inet_addr                  0001e2dc f   oal_blcommon:format.obj
 0001:0000d33c       KITLOutputDebugString      0001e33c f   oal_blcommon:format.obj
 0001:0000d4ac       FormatString               0001e4ac f   oal_blcommon:format.obj
 0001:0000d644       inet_ntoa                  0001e644 f   oal_blcommon:format.obj
 0001:0000dfe4       BootloaderMain             0001efe4 f   oal_blcommon:blcommon.obj
 0001:0000e7f4       BP_ReadData                0001f7f4 f   bootpart:bootpart.obj
 0001:0000ea74       BP_WriteData               0001fa74 f   bootpart:bootpart.obj
 0001:0000ed8c       BP_SetDataPointer          0001fd8c f   bootpart:bootpart.obj
 0001:0000edf4       BP_Init                    0001fdf4 f   bootpart:bootpart.obj
 0001:0000f330       BP_LowLevelFormat          00020330 f   bootpart:bootpart.obj
 0001:0000f4c4       BP_OpenPartition           000204c4 f   bootpart:bootpart.obj
 0001:0000f6bc       EbootInitTFtpd             000206bc f   eboot:tftpd.obj
 0001:0000f6dc       tolower                    000206dc f   eboot:tftpd.obj
 0001:0000f6ec       EbootTFtpdServerRegister   000206ec f   eboot:tftpd.obj
 0001:0000f77c       GenerateSrcPort            0002077c f   eboot:tftpd.obj
 0001:0000f788       TFtpdCallBack              00020788 f   eboot:tftpd.obj
 0001:0000fa64       TFtpdFormNewLink           00020a64 f   eboot:tftpd.obj
 0001:0000fee4       EbootInitTftpSimple        00020ee4 f   eboot:ebsimp.obj
 0001:0000ff50       EbootEtherReadData         00020f50 f   eboot:ebsimp.obj
 0001:000100dc       EbootCheckIP               000210dc f   eboot:ebsimp.obj
 0001:000101ac       EbootGetDHCPAddr           000211ac f   eboot:ebsimp.obj
 0001:00010378       EbootSendBootmeAndWaitForTftp 00021378 f   eboot:ebsimp.obj
 0001:00010544       EbootWaitForHostConnect    00021544 f   eboot:ebsimp.obj
 0001:00010640       EbootInitEtherTransport    00021640 f   eboot:ebsimp.obj
 0001:0001073c       EbootInitTFtp              0002173c f   eboot:tftp.obj
 0001:00010790       TFtpKillLink               00021790 f   eboot:tftp.obj
 0001:00010888       TFtpStateMachine           00021888 f   eboot:tftp.obj
 0001:00010b24       EbootTFtpReceiver          00021b24 f   eboot:tftp.obj
 0001:00010c78       SrcAddrFromFrame           00021c78 f   eboot:udp.obj
 0001:00010ce4       EbootGratuitousARP         00021ce4 f   eboot:udp.obj
 0001:00010e40       SetPromiscuousIP           00021e40 f   eboot:udp.obj
 0001:00010e54       ClearPromiscuousIP         00021e54 f   eboot:udp.obj
 0001:00010f20       EbootProcessARP            00021f20 f   eboot:udp.obj
 0001:000111a8       EbootSendUDP               000221a8 f   eboot:udp.obj
 0001:00011420       EbootCheckUDP              00022420 f   eboot:udp.obj
 0001:000116e4       DHCPBuildOps               000226e4 f   eboot:dhcp.obj
 0001:00011898       DHCPFindOption             00022898 f   eboot:dhcp.obj
 0001:00011990       EbootProcessDHCP           00022990 f   eboot:dhcp.obj
 0001:00011cd8       EbootInitDHCP              00022cd8 f   eboot:dhcp.obj
 0001:00011d3c       EbootDHCPRetransmit        00022d3c f   eboot:dhcp.obj
 0001:00011e5c       SendDHCP                   00022e5c f   eboot:dhcp.obj
 0001:000122e8       EbootDHCPDecline           000232e8 f   eboot:dhcp.obj
 0001:00012368       EbootProcessEDBG           00023368 f   eboot:edbg.obj
 0001:0001252c       EbootSendBootme            0002352c f   eboot:edbg.obj
 0001:000126f4       READ_REGISTER_ULONG        000236f4 f   ddk_io:ddk_io.obj
 0001:000126fc       WRITE_REGISTER_ULONG       000236fc f   ddk_io:ddk_io.obj
 0001:00012704       __report_gsfailure         00023704 f   gsnull:gsnull.obj
 0001:00012708       FMD_Init                   00023708 f   nandflash_lib:fmd.obj
 0001:000128fc       ?_ReadXID@@YAHPAE0H@Z      000238fc f   nandflash_lib:fmd.obj
 0001:000129e0       FMD_GetInfo                000239e0 f   nandflash_lib:fmd.obj
 0001:00012b78       ?NAND_SB_ReadSectorInfo@@YAXKPAU_SectorInfo@@H@Z 00023b78 f   nandflash_lib:fmd.obj
 0001:00012c7c       ?NAND_SB_WriteSectorInfo@@YAHKPAU_SectorInfo@@H@Z 00023c7c f   nandflash_lib:fmd.obj
 0001:00012e08       ?FMD_SB_ReadSector@@YAHKPAEPAU_SectorInfo@@KH@Z 00023e08 f   nandflash_lib:fmd.obj
 0001:000130d0       ?FMD_SB_GetBlockStatus@@YAKKH@Z 000240d0 f   nandflash_lib:fmd.obj
 0001:0001316c       ?FMD_SB_EraseBlock@@YAHKH@Z 0002416c f   nandflash_lib:fmd.obj
 0001:0001328c       ?FMD_SB_WriteSector@@YAHKPAEPAU_SectorInfo@@KH@Z 0002428c f   nandflash_lib:fmd.obj
 0001:00013548       ?SB_MarkBlockBad@@YAHKH@Z  00024548 f   nandflash_lib:fmd.obj
 0001:000136a8       ?FMD_SB_SetBlockStatus@@YAHKKH@Z 000246a8 f   nandflash_lib:fmd.obj
 0001:00013704       ?NAND_LB_ReadSectorInfo@@YAXKPAU_SectorInfo@@H@Z 00024704 f   nandflash_lib:fmd.obj
 0001:00013830       ?NAND_LB_WriteSectorInfo@@YAHKPAU_SectorInfo@@H@Z 00024830 f   nandflash_lib:fmd.obj
 0001:000139cc       ?FMD_LB_ReadSector@@YAHKPAEPAU_SectorInfo@@KH@Z 000249cc f   nandflash_lib:fmd.obj
 0001:00013ce4       ?FMD_LB_GetBlockStatus@@YAKKH@Z 00024ce4 f   nandflash_lib:fmd.obj
 0001:00013d70       ?FMD_LB_EraseBlock@@YAHKH@Z 00024d70 f   nandflash_lib:fmd.obj
 0001:00013ea0       ?FMD_LB_WriteSector@@YAHKPAEPAU_SectorInfo@@KH@Z 00024ea0 f   nandflash_lib:fmd.obj
 0001:0001418c       ?LB_MarkBlockBad@@YAHKH@Z  0002518c f   nandflash_lib:fmd.obj
 0001:000142e8       ?FMD_LB_SetBlockStatus@@YAHKKH@Z 000252e8 f   nandflash_lib:fmd.obj
 0001:00014344       FMD_ReadSector             00025344 f   nandflash_lib:fmd.obj
 0001:00014414       FMD_GetBlockStatus         00025414 f   nandflash_lib:fmd.obj
 0001:000144e0       FMD_EraseBlock             000254e0 f   nandflash_lib:fmd.obj
 0001:00014604       FMD_WriteSector            00025604 f   nandflash_lib:fmd.obj
 0001:000146d4       FMD_SetBlockStatus         000256d4 f   nandflash_lib:fmd.obj
 0001:000147e8       ECC_CorrectData            000257e8 f   nandflash_lib:ecc.obj
 0001:00014938       ReadPage512                00025938 f   nandflash_lib:nand.obj
 0001:00014974       WritePage512               00025974 f   nandflash_lib:nand.obj
 0001:000149b4       memset                     000259b4 f   fulllibc:memset.obj
 0001:00014a3c       __utod                     00025a3c     fulllibc:r_itod.obj
 0001:00014a44       __itod                     00025a44     fulllibc:r_itod.obj
 0001:00014a9c       __divd                     00025a9c f   fulllibc:r_divd.obj
 0001:00014d84       __muld                     00025d84 f   fulllibc:r_muld.obj
 0001:00014ff4       __dtoi                     00025ff4 f   fulllibc:r_dtoi.obj
 0001:00015150       __GSHandlerCheckCommon     00026150 f   fulllibc:gshandler.obj
 0001:0001518c       __GSHandlerCheck           0002618c f   fulllibc:gshandler.obj
 0001:000151b0       __security_check_cookie    000261b0 f   fulllibc:armsecgs.obj
 0001:000151c4       __gsfailure                000261c4 f   fulllibc:armsecgs.obj
 0001:00015208       atol                       00026208 f   fulllibc:atox.obj
 0001:000152ac       atoi                       000262ac f   fulllibc:atox.obj
 0001:000152bc       strlen                     000262bc f   fulllibc:mdsstrlen.obj
 0001:00015320       memcpy                     00026320 f   fulllibc:memcpy.obj
 0001:000156cc       memcpybigblk               000266cc f   fulllibc:memcpy.obj
 0001:00016080       strcmp                     00027080 f   fulllibc:mdsstrcmp.obj
 0001:00016170       __rt_udiv                  00027170 f   fulllibc:__udiv.obj
 0001:00016234       memcmp                     00027234 f   fulllibc:memcmp.obj
 0001:00016300       __rt_sdiv                  00027300 f   fulllibc:__div.obj
 0001:000163dc       __rt_udivrem64by64         000273dc f   fulllibc:mdsdiv64.obj
 0001:000164d4       __rt_divrem64by64          000274d4 f   fulllibc:mdsdiv64.obj
 0001:00016524       __rt_udiv64by64            00027524 f   fulllibc:mdsdiv64.obj
 0001:00016534       __rt_urem64by64            00027534 f   fulllibc:mdsdiv64.obj
 0001:0001654c       __rt_sdiv64by64            0002754c f   fulllibc:mdsdiv64.obj
 0001:0001655c       __rt_srem64by64            0002755c f   fulllibc:mdsdiv64.obj
 0001:00016574       strcpy                     00027574 f   fulllibc:strcpy.obj
 0001:0001666c       _itoa                      0002766c f   fulllibc:xtoa.obj
 0001:000166a4       strncpy                    000276a4 f   fulllibc:astrncpy.obj
 0001:0001674c       strcat                     0002774c f   fulllibc:mdsstrcat.obj
 0001:00016774       __fp_veneer_error          00027774     fulllibc:error.obj
 0001:00016774       __fp_nonveneer_error       00027774     fulllibc:error.obj
 0001:00016778       __fp_exception             00027778     fulllibc:error.obj
 0001:000168bc       __fp_div_common            000278bc     fulllibc:div.obj
 0001:000168e0       __fp_rdv_common            000278e0     fulllibc:div.obj
 0001:00016d84       __fp_rdv_uncommon          00027d84     fulllibc:div.obj
 0001:00016d84       __fp_div_uncommon          00027d84     fulllibc:div.obj
 0001:00016ec4       __fp_norm_op1              00027ec4     fulllibc:normop1.obj
 0001:00016f84       __fp_norm_op2              00027f84     fulllibc:normop2.obj
 0001:0001704c       FPE_Raise                  0002804c f   fulllibc:fpraise.obj
 0001:000176ec       _e2d                       000286ec     fulllibc:e2d.obj
 0001:000176f8       __fp_e2d                   000286f8     fulllibc:e2d.obj
 0001:00017790       _e2d_ExpUnderflow          00028790     fulllibc:e2d.obj
 0001:000179b8       __fp_mult_common           000289b8     fulllibc:mul.obj
 0001:00017bdc       __fp_mult_fast_common      00028bdc     fulllibc:mul.obj
 0001:00017c40       __fp_mult_uncommon         00028c40     fulllibc:mul.obj
 0001:00017d5c       __raise_int_divide_by_zero 00028d5c f   fulllibc:diverr.obj
 0001:00017d80       __fp_fcheck_NaN2           00028d80     fulllibc:check.obj
 0001:00017dac       __fp_dcheck_NaN2           00028dac     fulllibc:check.obj
 0001:00017df4       __fp_return_NaN            00028df4     fulllibc:check.obj
 0001:00017e5c       __fp_return_Inf            00028e5c     fulllibc:check.obj
 0001:00017e60       __fp_convert_NaNs          00028e60     fulllibc:nans.obj
 0001:00017e80       __fp_convert_NaN_2Of2      00028e80     fulllibc:nans.obj
 0001:00017e98       __fp_convert_NaN1          00028e98     fulllibc:nans.obj
 0001:00017ea4       __fp_convert_NaN_1Of2      00028ea4     fulllibc:nans.obj
 0001:00017f34       __fp_norm_denorm_op1       00028f34     fulllibc:normal.obj
 0001:0001801c       __fp_norm_denorm_op2       0002901c     fulllibc:normal.obj
 0001:00018128       __fp_normalise_op1         00029128     fulllibc:normal.obj
 0001:0001818c       __fp_normalise_op2         0002918c     fulllibc:normal.obj
 0001:000181f0       __fp_normalise_op1neg      000291f0     fulllibc:normal.obj
 0001:0001826c       __crtRaiseException        0002926c f   fulllibc:raiseexc.obj
 0002:00000000       g_bDownloadImage           0002a000     main.obj
 0002:00000004       g_bWaitForConnect          0002a004     main.obj
 0002:00000008       embedsky_LCD_Buffer        0002a008     main.obj
 0002:0000000c       downPtIndex                0002a00c     usb.lib
 0002:00000010       readPtIndex                0002a010     usb.lib
 0002:00000014       Selfpwr                    0002a014     usb.lib
 0002:00000018       initialOALLogZones         0002a018     oal_log:debug.obj
 0002:00000020       dpCurSettings              0002a020     oal_log:debug.obj
 0002:000004ac       ?g_dwMBRSectorNum@@3KA     0002a4ac     bootpart:bootpart.obj
 0002:000004bc       __security_cookie          0002a4bc     gsnull:gsnull.obj
 0002:000004c0       __security_cookie_complement 0002a4c0     gsnull:gsnull.obj
 0002:000006c0       __fp_status_flags          0002a6c0     fulllibc:fpdata.obj
 0002:000006c4       __fp_errblock              0002a6c4     fulllibc:fpdata.obj
 0002:00000708       __rt_trap                  0002a708     fulllibc:fpdata.obj
 0002:00000720       g_bBootMediaExist          0002a720     main.obj
 0002:00000724       g_bUSBDownload             0002a724     main.obj
 0002:00000728       currWidth                  0002a728     main.obj
 0002:00000954       g_DMAbufIndex              0002a954     usb.lib
 0002:00000958       debugM                     0002a958     usb.lib
 0002:0000095c       DMADone                    0002a95c     usb.lib
 0002:00000960       realPhysicalAddr_UsbdRxBuf 0002a960     usb.lib
 0002:00000964       loopcnt                    0002a964     usb.lib
 0002:00000968       transferIndex              0002a968     usb.lib
 0002:000026b0       ?g_partStateTable@@3PAU_PARTSTATE@@A 0002c6b0     bootpart:bootpart.obj
 0002:000026d0       ?g_FlashInfo@@3U_FlashInfo@@A 0002c6d0     bootpart:bootpart.obj
 0002:000026e0       ?g_dwDataBytesPerBlock@@3KA 0002c6e0     bootpart:bootpart.obj
 0002:000026e4       ?g_dwLastWrittenLoc@@3KA   0002c6e4     bootpart:bootpart.obj
 0002:000026e8       ?g_dwLastLogSector@@3KA    0002c6e8     bootpart:bootpart.obj
 0002:000026ec       ?g_pSectorInfoBuf@@3PAU_SectorInfo@@A 0002c6ec     bootpart:bootpart.obj
 0002:000026f0       ?g_pbMBRSector@@3PAEA      0002c6f0     bootpart:bootpart.obj
 0002:000026f4       ?g_pbBlock@@3PAEA          0002c6f4     bootpart:bootpart.obj
 0002:00002700       bDoLaunch                  0002c700     eboot:tftpd.obj
 0002:00002704       TftpPeerAddr               0002c704     eboot:tftpd.obj
 0002:00002fc4       ?pNFCONF@@3RAGA            0002cfc4     nandflash_lib:fmd.obj
 0002:00002fc8       ?pNFCMD@@3RAGA             0002cfc8     nandflash_lib:fmd.obj
 0002:00002fcc       ?pNFMECCD1@@3RAKA          0002cfcc     nandflash_lib:fmd.obj
 0002:00002fd0       ?wPRIMARY_REAL_NAND_BLOCKS@@3GA 0002cfd0     nandflash_lib:fmd.obj
 0002:00002fd4       ?pNFDATA@@3RAKA            0002cfd4     nandflash_lib:fmd.obj
 0002:00002fd8       ?pBSPArgs@@3PAUBSP_ARGS@@A 0002cfd8     nandflash_lib:fmd.obj
 0002:00002fdc       ?wSECONDARY_NAND_BLOCKS@@3GA 0002cfdc     nandflash_lib:fmd.obj
 0002:00002fe0       ?pNFSTAT@@3RAGA            0002cfe0     nandflash_lib:fmd.obj
 0002:00002fe4       ?pNFCONT@@3RAGA            0002cfe4     nandflash_lib:fmd.obj
 0002:00002fe8       ?dwPrimaryNandDevice@@3KA  0002cfe8     nandflash_lib:fmd.obj
 0002:00002fec       ?pNFReg@@3RAGA             0002cfec     nandflash_lib:fmd.obj
 0002:00002ff0       ?pNFESTAT1@@3RAKA          0002cff0     nandflash_lib:fmd.obj
 0002:00002ff4       ?pNFESTAT0@@3RAKA          0002cff4     nandflash_lib:fmd.obj
 0002:00002ff8       ?pNFADDR@@3RAGA            0002cff8     nandflash_lib:fmd.obj
 0002:00002ffc       ?pNFMECC1@@3RAKA           0002cffc     nandflash_lib:fmd.obj
 0002:00003000       ?v_pIOPregs@@3PAUS3C2440A_IOPORT_REG@@A 0002d000     nandflash_lib:fmd.obj
 0002:00003004       ?wPRIMARY_NAND_BLOCKS@@3GA 0002d004     nandflash_lib:fmd.obj
 0002:00003008       ?pNFSBLK@@3RAKA            0002d008     nandflash_lib:fmd.obj
 0002:0000300c       ?pNFEBLK@@3RAKA            0002d00c     nandflash_lib:fmd.obj
 0002:00003010       ?pNFMECCD0@@3RAKA          0002d010     nandflash_lib:fmd.obj
 0002:00003014       ?pNFECC@@3RAKA             0002d014     nandflash_lib:fmd.obj
 0002:00003018       ?wSECONDARY_REAL_NAND_BLOCKS@@3GA 0002d018     nandflash_lib:fmd.obj
 0002:0000301c       ?wNUM_BLOCKS@@3GA          0002d01c     nandflash_lib:fmd.obj
 0002:00003020       ?dwSecondaryNandDevice@@3KA 0002d020     nandflash_lib:fmd.obj
 0002:00003024       ?pNFMECC0@@3RAKA           0002d024     nandflash_lib:fmd.obj
 0002:00003028       InterfaceGet               0002d028     <common>
 0002:0000302c       downPt                     0002d02c     <common>
 0002:00003030       ConfigSet                  0002d030     <common>
 0002:00003031       Rwuen                      0002d031     <common>
 0002:00003038       descSetup                  0002d038     <common>
 0002:00003040       ep0State                   0002d040     <common>
 0002:00003050       descConf                   0002d050     <common>
 0002:00003060       descEndpt0                 0002d060     <common>
 0002:00003080       descDev                    0002d080     <common>
 0002:00003098       descEndpt1                 0002d098     <common>
 0002:000030a0       isUsbdSetConfiguration     0002d0a0     <common>
 0002:000030b0       descIf                     0002d0b0     <common>
 0002:000030c0       ep1Buf                     0002d0c0     <common>
 0002:00003100       pUSBCtrlAddr               0002d100     <common>
 0002:00003108       StatusGet                  0002d108     <common>
 0002:00003110       pfnEDbgGetFrame            0002d110     <common>
 0002:00003114       pfnEDbgInit                0002d114     <common>
 0002:00003118       pfnEDbgSendFrame           0002d118     <common>
 0002:0000311c       g_pBootCfg                 0002d11c     <common>
 0002:00003120       g_BINRegionInfo            0002d120     <common>
 0002:00004b50       g_DeviceAddr               0002eb50     <common>
 0002:00004b5c       g_dwImageStartBlock        0002eb5c     <common>
 0002:00004b60       g_ImageType                0002eb60     <common>
 0002:00004b80       g_TOC                      0002eb80     <common>
 0002:00004d80       g_dwTocEntry               0002ed80     <common>
 0002:00004d84       wNUM_BLOCKS                0002ed84     <common>
 0002:00004d88       g_pOEMVerifyMemory         0002ed88     <common>
 0002:00004d8c       g_dwROMOffset              0002ed8c     <common>
 0002:00004d90       g_pOEMReportError          0002ed90     <common>
 0002:00004d94       g_pOEMMultiBINNotify       0002ed94     <common>
 0002:00004d98       g_pOEMCheckSignature       0002ed98     <common>
 0002:00004d9c       szSprintf                  0002ed9c     <common>
 0002:00004da0       TFtpLinks                  0002eda0     <common>
 0002:00005660       wOdoWellKnownServerPort    0002f660     <common>
 0002:00005662       wHostWellKnownServerPort   0002f662     <common>
 0002:00005664       nNumTFtpLinksInUse         0002f664     <common>
 0002:00005680       TFTPFrameBuffer            0002f680     <common>
 0002:00005ac0       TFtpdServerRegistry        0002fac0     <common>
 0002:00005b88       _soft_fp_control           0002fb88     <common>

 entry point at        0001:00000000

 Static symbols

 0001:00006a98       SetIP                      00017a98 f   main.obj
 0001:00006b88       SetMask                    00017b88 f   main.obj
 0001:00006c78       SetDelay                   00017c78 f   main.obj
 0001:00006d74       CvtMAC                     00017d74 f   main.obj
 0001:00006e7c       SetDM9000MACAddress        00017e7c f   main.obj
 0001:00006fdc       MainMenu                   00017fdc f   main.obj
 0001:0000926c       ?BootConfigInit@@YAXK@Z    0001a26c f   nand.obj
 0001:0000c854       GetFormatValue             0001d854 f   oal_blnk:format.obj
 0001:0000d220       pOutputByte                0001e220 f   oal_blcommon:format.obj
 0001:0000d250       pOutputNumHex              0001e250 f   oal_blcommon:format.obj
 0001:0000d298       pOutputNumDecimal          0001e298 f   oal_blcommon:format.obj
 0001:0000d694       IsKernelRegion             0001e694 f   oal_blcommon:blcommon.obj
 0001:0000d758       DownloadImage              0001e758 f   oal_blcommon:blcommon.obj
 0001:0000e24c       LBAtoCHS                   0001f24c f   bootpart:bootpart.obj
 0001:0000e2d4       AddPartitionTableEntry     0001f2d4 f   bootpart:bootpart.obj
 0001:0000e3f4       LastLogSector              0001f3f4 f   bootpart:bootpart.obj
 0001:0000e488       Log2Phys                   0001f488 f   bootpart:bootpart.obj
 0001:0000e54c       FindFreeSector             0001f54c f   bootpart:bootpart.obj
 0001:0000e60c       ?AreSectorsFree@@YAHKK@Z   0001f60c f   bootpart:bootpart.obj
 0001:0000e6f4       ReadBlock                  0001f6f4 f   bootpart:bootpart.obj
 0001:0000e774       WriteBlock                 0001f774 f   bootpart:bootpart.obj
 0001:0000eed4       ?WriteMBR@@YAHXZ           0001fed4 f   bootpart:bootpart.obj
 0001:0000eff0       WriteLogicalNumbers        0001fff0 f   bootpart:bootpart.obj
 0001:0000f11c       CreatePartition            0002011c f   bootpart:bootpart.obj
 0001:0000fe68       EbootSimpleCallback        00020e68 f   eboot:ebsimp.obj
 0001:00010e68       CRC                        00021e68 f   eboot:udp.obj
 0001:00011624       FormatDHCPName             00022624 f   eboot:dhcp.obj
 0001:000165f8       xtoa                       000275f8 f   fulllibc:xtoa.obj
