 oal

 Timestamp is 4f87b394 (Fri Apr 13 13:03:16 2012)

 Preferred load address is 00010000

 Start         Length     Name                   Class
 0001:00000000 000008a8H .astart                 CODE
 0001:000008b0 00004d62H .rdata                  CODE
 0001:00005614 00000020H .rdata$debug            CODE
 0001:00005634 000064d4H .text                   CODE
 0001:0000bb08 00000014H .xdata                  CODE
 0001:0000bb1c 00000000H .edata                  CODE
 0002:00000000 00006000H .KDATA                  DATA
 0003:00000000 0000068cH .data                   DATA
 0003:000006a0 000003ecH .bss                    DATA
 0004:00000000 000003c8H .pdata                  DATA

  Address         Publics by Value              Rva+Base       Lib:Object

 0000:00000000       ___safe_se_handler_count   00000000     <absolute>
 0000:00000000       ___safe_se_handler_table   00000000     <absolute>
 0001:00000000       StartUp                    00011000 f   oal:startup.obj
 0001:00000460       g_oalAddressTable          00011460     oal:startup.obj
 0001:000005a4       OALCPUPowerOff             000115a4 f   oal:startup.obj
 0001:0000079c       CLKDIV124                  0001179c f   oal:startup.obj
 0001:000007ac       CLKDIV144                  000117ac f   oal:startup.obj
 0001:000007bc       CLKDIV136                  000117bc f   oal:startup.obj
 0001:000007e0       CLKDIV166                  000117e0 f   oal:startup.obj
 0001:00000804       CLKDIV148                  00011804 f   oal:startup.obj
 0001:00000828       CLKDIV188                  00011828 f   oal:startup.obj
 0001:0000084c       DVS_ON                     0001184c f   oal:startup.obj
 0001:00000860       DVS_OFF                    00011860 f   oal:startup.obj
 0001:000008cc       pTOC                       000118cc     nkldr:ldrcmn.obj
 0001:000008d0       RomExt                     000118d0     nkldr:ldrcmn.obj
 0001:000008fc       ??_C@_0L@CPPPICDM@kernel?4dll?$AA@ 000118fc     nkldr:ldrcmn.obj
 0001:00000a28       ??_C@_1BO@HJDDCMFN@?$AAs?$AA2?$AA4?$AA4?$AA0?$AAC?$AAp?$AAl?$AAd?$AA?3?$AA?$CF?$AAx?$AA?$AN?$AA?6?$AA?$AA@ 00011a28     oal:init.obj
 0001:00000a48       ??_C@_1CI@DKJFKNCA@?$AAI?$AAn?$AAi?$AAt?$AAD?$AAi?$AAs?$AAp?$AAl?$AAa?$AAy?$AA?3?$AA?$CF?$AAd?$AA?$CK?$AA?$CF?$AAd?$AA?$AN?$AA?6?$AA?$AA@ 00011a48     oal:init.obj
 0001:00000a70       ??_C@_1BM@MINFPBNF@?$AAU?$AAa?$AAr?$AAt?$AAC?$AAp?$AAl?$AAd?$AA?3?$AA?$CF?$AAx?$AA?$AN?$AA?6?$AA?$AA@ 00011a70     oal:init.obj
 0001:00000a8c       ??_C@_1BG@OFOAIMMC@?$AA?9?$AAO?$AAE?$AAM?$AAI?$AAn?$AAi?$AAt?$AA?$AN?$AA?6?$AA?$AA@ 00011a8c     oal:init.obj
 0001:00000aa8       ??_C@_1GE@OIDINFAG@?$AAE?$AAR?$AAR?$AAO?$AAR?$AA?3?$AA?5?$AAO?$AAE?$AAM?$AAI?$AAn?$AAi?$AAt?$AA?3?$AA?5?$AAf?$AAa?$AAi?$AAl?$AAe?$AAd?$AA?5?$AAt?$AAo?$AA?5?$AAi?$AAn?$AAi?$AAt?$AAi?$AAa@ 00011aa8     oal:init.obj
 0001:00000b0c       ??_C@_1DC@MFHDNPID@?$AAO?$AAE?$AAM?$AA?3?$AA?5?$AAF?$AAo?$AAr?$AAc?$AAe?$AA?5?$AAc?$AAl?$AAe?$AAa?$AAn?$AA?5?$AAb?$AAo?$AAo?$AAt?$AA?4?$AA?$AN?$AA?6?$AA?$AA@ 00011b0c     oal:init.obj
 0001:00000b40       ??_C@_1BG@JHBBNGEC@?$AA?$CL?$AAO?$AAE?$AAM?$AAI?$AAn?$AAi?$AAt?$AA?$AN?$AA?6?$AA?$AA@ 00011b40     oal:init.obj
 0001:00000b58       ??_C@_1GE@CAKBAMHM@?$AAD?$AAC?$AAa?$AAc?$AAh?$AAe?$AA?3?$AA?5?$AA?$CF?$AAd?$AA?5?$AAs?$AAe?$AAt?$AAs?$AA?0?$AA?5?$AA?$CF?$AAd?$AA?5?$AAw?$AAa?$AAy?$AAs?$AA?0?$AA?5?$AA?$CF?$AAd?$AA?5?$AAl?$AAi?$AAn@ 00011b58     oal:init.obj
 0001:00000bc0       ??_C@_1GE@ECCMOOLO@?$AAI?$AAC?$AAa?$AAc?$AAh?$AAe?$AA?3?$AA?5?$AA?$CF?$AAd?$AA?5?$AAs?$AAe?$AAt?$AAs?$AA?0?$AA?5?$AA?$CF?$AAd?$AA?5?$AAw?$AAa?$AAy?$AAs?$AA?0?$AA?5?$AA?$CF?$AAd?$AA?5?$AAl?$AAi?$AAn@ 00011bc0     oal:init.obj
 0001:00000c24       ??_C@_1CM@BMDDLKDO@?$AA?9?$AAO?$AAE?$AAM?$AAC?$AAa?$AAc?$AAh?$AAe?$AAR?$AAa?$AAn?$AAg?$AAe?$AAF?$AAl?$AAu?$AAs?$AAh?$AA?$AN?$AA?6?$AA?$AA@ 00011c24     oal_cache_s3c2440a:flush.obj
 0001:00000c50       ??_C@_1FE@FFFKHHBK@?$AA?$CL?$AAO?$AAE?$AAM?$AAC?$AAa?$AAc?$AAh?$AAe?$AAR?$AAa?$AAn?$AAg?$AAe?$AAF?$AAl?$AAu?$AAs?$AAh?$AA?$CI?$AA0?$AAx?$AA?$CF?$AA0?$AA8?$AAx?$AA?0?$AA?5?$AA?$CF?$AAd?$AA?0?$AA?5@ 00011c50     oal_cache_s3c2440a:flush.obj
 0001:00000d38       ??_C@_1DC@BNLGCJKD@?$AA?9?$AAO?$AAA?$AAL?$AAT?$AAi?$AAm?$AAe?$AAr?$AAI?$AAn?$AAi?$AAt?$AA?$CI?$AAr?$AAc?$AA?5?$AA?$DN?$AA?5?$AA?$CF?$AAd?$AA?$CJ?$AA?$AN?$AA?6?$AA?$AA@ 00011d38     oal_timer_s3c2440a:timer_fixtick.obj
 0001:00000d70       ??_C@_1HA@CPDFBGLD@?$AAE?$AAR?$AAR?$AAO?$AAR?$AA?3?$AA?5?$AAO?$AAA?$AAL?$AAT?$AAi?$AAm?$AAe?$AAr?$AAI?$AAn?$AAi?$AAt?$AA?3?$AA?5?$AAS?$AAy?$AAs?$AAt?$AAe?$AAm?$AA?5?$AAt?$AAi?$AAc?$AAk@ 00011d70     oal_timer_s3c2440a:timer_fixtick.obj
 0001:00000de0       ??_C@_1HM@CJGLDOPJ@?$AAE?$AAR?$AAR?$AAO?$AAR?$AA?3?$AA?5?$AAO?$AAA?$AAL?$AAT?$AAi?$AAm?$AAe?$AAr?$AAI?$AAn?$AAi?$AAt?$AA?3?$AA?5?$AAI?$AAn?$AAt?$AAe?$AAr?$AAr?$AAu?$AAp?$AAt?$AA?5?$AAe@ 00011de0     oal_timer_s3c2440a:timer_fixtick.obj
 0001:00000e5c       ??_C@_1DM@HOCGOKJC@?$AA?$CL?$AAO?$AAA?$AAL?$AAT?$AAi?$AAm?$AAe?$AAr?$AAI?$AAn?$AAi?$AAt?$AA?$CI?$AA?5?$AA?$CF?$AAd?$AA?0?$AA?5?$AA?$CF?$AAd?$AA?0?$AA?5?$AA?$CF?$AAd?$AA?5?$AA?$CJ?$AA?$AN?$AA?6?$AA?$AA@ 00011e5c     oal_timer_s3c2440a:timer_fixtick.obj
 0001:00001168       ??_C@_1DK@JEFKKIKI@?$AA?9?$AAO?$AAA?$AAL?$AAI?$AAn?$AAt?$AAe?$AAr?$AAr?$AAu?$AAp?$AAt?$AAI?$AAn?$AAi?$AAt?$AA?$CI?$AAr?$AAc?$AA?5?$AA?$DN?$AA?5?$AA?$CF?$AAd?$AA?$CJ?$AA?$AN?$AA?6?$AA?$AA@ 00012168     oal_intr_s3c2440a:intr.obj
 0001:000011a4       ??_C@_1CI@LJHDCJDG@?$AA?$CL?$AAO?$AAA?$AAL?$AAI?$AAn?$AAt?$AAe?$AAr?$AAr?$AAu?$AAp?$AAt?$AAI?$AAn?$AAi?$AAt?$AA?$AN?$AA?6?$AA?$AA@ 000121a4     oal_intr_s3c2440a:intr.obj
 0001:000011cc       ??_C@_1DO@NDIEKHNP@?$AA?9?$AAO?$AAA?$AAL?$AAI?$AAn?$AAt?$AAr?$AAR?$AAe?$AAq?$AAu?$AAe?$AAs?$AAt?$AAI?$AAr?$AAq?$AAs?$AA?$CI?$AAr?$AAc?$AA?5?$AA?$DN?$AA?5?$AA?$CF?$AAd?$AA?$CJ?$AA?$AN?$AA?6?$AA?$AA@ 000121cc     oal_intr_s3c2440a:intr.obj
 0001:00001210       ??_C@_1HO@EBPJKEJJ@?$AA?$CL?$AAO?$AAA?$AAL?$AAI?$AAn?$AAt?$AAr?$AAR?$AAe?$AAq?$AAu?$AAe?$AAs?$AAt?$AAI?$AAr?$AAq?$AAs?$AA?$CI?$AA0?$AAx?$AA?$CF?$AA0?$AA8?$AAx?$AA?9?$AA?$DO?$AA?$CF?$AAd?$AA?1?$AA?$CF@ 00012210     oal_intr_s3c2440a:intr.obj
 0001:00001290       ??_C@_1DM@INNHDHDJ@?$AA?9?$AAO?$AAA?$AAL?$AAI?$AAn?$AAt?$AAr?$AAE?$AAn?$AAa?$AAb?$AAl?$AAe?$AAI?$AAr?$AAq?$AAs?$AA?$CI?$AAr?$AAc?$AA?5?$AA?$DN?$AA?5?$AA?$CF?$AAd?$AA?$CJ?$AA?$AN?$AA?6?$AA?$AA@ 00012290     oal_intr_s3c2440a:intr.obj
 0001:000012d0       ??_C@_1EC@MDFPIGAB@?$AA?$CL?$AAO?$AAA?$AAL?$AAI?$AAn?$AAt?$AAr?$AAE?$AAn?$AAa?$AAb?$AAl?$AAe?$AAI?$AAr?$AAq?$AAs?$AA?$CI?$AA?$CF?$AAd?$AA?0?$AA?5?$AA0?$AAx?$AA?$CF?$AA0?$AA8?$AAx?$AA?$CJ?$AA?$AN?$AA?6@ 000122d0     oal_intr_s3c2440a:intr.obj
 0001:00001314       ??_C@_1CM@GPENGBBP@?$AA?9?$AAO?$AAA?$AAL?$AAI?$AAn?$AAt?$AAr?$AAD?$AAi?$AAs?$AAa?$AAb?$AAl?$AAe?$AAI?$AAr?$AAq?$AAs?$AA?$AN?$AA?6?$AA?$AA@ 00012314     oal_intr_s3c2440a:intr.obj
 0001:00001340       ??_C@_1EE@NIPMEMC@?$AA?$CL?$AAO?$AAA?$AAL?$AAI?$AAn?$AAt?$AAr?$AAD?$AAi?$AAs?$AAa?$AAb?$AAl?$AAe?$AAI?$AAr?$AAq?$AAs?$AA?$CI?$AA?$CF?$AAd?$AA?0?$AA?5?$AA0?$AAx?$AA?$CF?$AA0?$AA8?$AAx?$AA?$CJ?$AA?$AN@ 00012340     oal_intr_s3c2440a:intr.obj
 0001:00001384       ??_C@_1CG@LBOJEJPE@?$AA?9?$AAO?$AAA?$AAL?$AAI?$AAn?$AAt?$AAr?$AAD?$AAo?$AAn?$AAe?$AAI?$AAr?$AAq?$AAs?$AA?$AN?$AA?6?$AA?$AA@ 00012384     oal_intr_s3c2440a:intr.obj
 0001:000013ac       ??_C@_1DO@FCJPHKGC@?$AA?$CL?$AAO?$AAA?$AAL?$AAI?$AAn?$AAt?$AAr?$AAD?$AAo?$AAn?$AAe?$AAI?$AAr?$AAq?$AAs?$AA?$CI?$AA?$CF?$AAd?$AA?0?$AA?5?$AA0?$AAx?$AA?$CF?$AA0?$AA8?$AAx?$AA?$CJ?$AA?$AN?$AA?6?$AA?$AA@ 000123ac     oal_intr_s3c2440a:intr.obj
 0001:000013f0       ??_C@_1EO@LBMOBBCH@?$AAI?$AAR?$AAQ?$AA_?$AAR?$AAT?$AAC?$AA?5?$AAA?$AAL?$AAA?$AAR?$AAM?$AA?5?$AAi?$AAn?$AAt?$AAe?$AAr?$AAr?$AAu?$AAp?$AAt?$AA?5?$AAi?$AAs?$AA?5?$AAo?$AAc?$AAc?$AAu?$AAr@ 000123f0     oal_intr_s3c2440a:intr.obj
 0001:00001440       ??_C@_1DK@FJOFOFKL@?$AAO?$AAE?$AAM?$AAi?$AAn?$AAt?$AAe?$AAr?$AAr?$AAu?$AAp?$AAt?$AAH?$AAa?$AAn?$AAd?$AAl?$AAe?$AA?5?$AA3?$AA5?$AA?5?$AAh?$AAe?$AAr?$AAe?$AA?$AN?$AA?6?$AA?$AA@ 00012440     oal_intr_s3c2440a:intr.obj
 0001:0000147c       ??_C@_1CE@HFBIALPK@?$AA?9?$AAO?$AAA?$AAL?$AAI?$AAn?$AAt?$AAr?$AAM?$AAa?$AAp?$AAI?$AAn?$AAi?$AAt?$AA?$AN?$AA?6?$AA?$AA@ 0001247c     oal_intr_s3c2440a:map.obj
 0001:000014a0       ??_C@_1CE@LMNIPMAG@?$AA?$CL?$AAO?$AAA?$AAL?$AAI?$AAn?$AAt?$AAr?$AAM?$AAa?$AAp?$AAI?$AAn?$AAi?$AAt?$AA?$AN?$AA?6?$AA?$AA@ 000124a0     oal_intr_s3c2440a:map.obj
 0001:000014c4       ??_C@_1DE@CBLJKBBB@?$AA?9?$AAO?$AAA?$AAL?$AAI?$AAn?$AAt?$AAr?$AAS?$AAt?$AAa?$AAt?$AAi?$AAc?$AAT?$AAr?$AAa?$AAn?$AAs?$AAl?$AAa?$AAt?$AAe?$AA?$AN?$AA?6?$AA?$AA@ 000124c4     oal_intr_s3c2440a:map.obj
 0001:000014f8       ??_C@_1EE@DPKCCBO@?$AA?$CL?$AAO?$AAA?$AAL?$AAI?$AAn?$AAt?$AAr?$AAS?$AAt?$AAa?$AAt?$AAi?$AAc?$AAT?$AAr?$AAa?$AAn?$AAs?$AAl?$AAa?$AAt?$AAe?$AA?$CI?$AA?$CF?$AAd?$AA?0?$AA?5?$AA?$CF?$AAd?$AA?$CJ?$AA?$AN@ 000124f8     oal_intr_s3c2440a:map.obj
 0001:00001540       ??_C@_1EK@JOJPHPGP@?$AA?9?$AAO?$AAA?$AAL?$AAI?$AAn?$AAt?$AAr?$AAT?$AAr?$AAa?$AAn?$AAs?$AAl?$AAa?$AAt?$AAe?$AAI?$AAr?$AAq?$AA?$CI?$AAs?$AAy?$AAs?$AAI?$AAn?$AAt?$AAr?$AA?5?$AA?$DN?$AA?5?$AA?$CF@ 00012540     oal_intr_s3c2440a:map.obj
 0001:0000158c       ??_C@_1DG@IAFKCJEB@?$AA?$CL?$AAO?$AAA?$AAL?$AAI?$AAn?$AAt?$AAr?$AAT?$AAr?$AAa?$AAn?$AAs?$AAl?$AAa?$AAt?$AAe?$AAI?$AAr?$AAq?$AA?$CI?$AA?$CF?$AAd?$AA?$CJ?$AA?$AN?$AA?6?$AA?$AA@ 0001258c     oal_intr_s3c2440a:map.obj
 0001:000015c8       ??_C@_1EO@CCPDBEFN@?$AA?9?$AAO?$AAA?$AAL?$AAI?$AAn?$AAt?$AAr?$AAR?$AAe?$AAq?$AAu?$AAe?$AAs?$AAt?$AAS?$AAy?$AAs?$AAI?$AAn?$AAt?$AAr?$AA?$CI?$AAs?$AAy?$AAs?$AAI?$AAn?$AAt?$AAr?$AA?5?$AA?$DN@ 000125c8     oal_intr_s3c2440a:map.obj
 0001:00001618       ??_C@_1HE@LGNFBECO@?$AAE?$AAR?$AAR?$AAO?$AAR?$AA?3?$AA?5?$AAO?$AAA?$AAL?$AAI?$AAn?$AAt?$AAr?$AAR?$AAe?$AAq?$AAu?$AAe?$AAs?$AAt?$AAS?$AAy?$AAs?$AAI?$AAn?$AAt?$AAr?$AA?3?$AA?5?$AAN?$AAo@ 00012618     oal_intr_s3c2440a:map.obj
 0001:00001690       ??_C@_1JG@CKDDKDGB@?$AAE?$AAR?$AAR?$AAO?$AAR?$AA?3?$AA?5?$AAO?$AAA?$AAL?$AAI?$AAn?$AAt?$AAr?$AAR?$AAe?$AAq?$AAu?$AAe?$AAs?$AAt?$AAS?$AAy?$AAs?$AAI?$AAn?$AAt?$AAr?$AA?3?$AA?5?$AAS?$AAt@ 00012690     oal_intr_s3c2440a:map.obj
 0001:00001728       ??_C@_1FK@JNHCPMAP@?$AA?$CL?$AAO?$AAA?$AAL?$AAI?$AAn?$AAt?$AAr?$AAR?$AAe?$AAq?$AAu?$AAe?$AAs?$AAt?$AAS?$AAy?$AAs?$AAI?$AAn?$AAt?$AAr?$AA?$CI?$AA?$CF?$AAd?$AA?0?$AA?5?$AA0?$AAx?$AA?$CF?$AA0?$AA8@ 00012728     oal_intr_s3c2440a:map.obj
 0001:00001788       ??_C@_1EE@GBADJBKJ@?$AA?9?$AAO?$AAA?$AAL?$AAI?$AAn?$AAt?$AAr?$AAR?$AAe?$AAl?$AAe?$AAa?$AAs?$AAe?$AAS?$AAy?$AAs?$AAI?$AAn?$AAt?$AAr?$AA?$CI?$AAr?$AAc?$AA?5?$AA?$DN?$AA?5?$AA?$CF?$AAd?$AA?$CJ?$AA?$AN@ 00012788     oal_intr_s3c2440a:map.obj
 0001:000017d0       ??_C@_1HC@BIEMDHNG@?$AAE?$AAR?$AAR?$AAO?$AAR?$AA?3?$AA?5?$AAO?$AAA?$AAL?$AAI?$AAn?$AAt?$AAr?$AAR?$AAe?$AAl?$AAe?$AAa?$AAs?$AAe?$AAS?$AAy?$AAs?$AAI?$AAn?$AAt?$AAr?$AA?3?$AA?5?$AAI?$AAn@ 000127d0     oal_intr_s3c2440a:map.obj
 0001:00001844       ??_C@_1DK@GDEEGDPM@?$AA?$CL?$AAO?$AAA?$AAL?$AAI?$AAn?$AAt?$AAr?$AAR?$AAe?$AAl?$AAe?$AAa?$AAs?$AAe?$AAS?$AAy?$AAs?$AAI?$AAn?$AAt?$AAr?$AA?$CI?$AA?$CF?$AAd?$AA?$CJ?$AA?$AN?$AA?6?$AA?$AA@ 00012844     oal_intr_s3c2440a:map.obj
 0001:00001880       ??_C@_1DM@KHBFOEPK@?$AA?9?$AAO?$AAE?$AAM?$AAI?$AAn?$AAt?$AAe?$AAr?$AAr?$AAu?$AAp?$AAt?$AAE?$AAn?$AAa?$AAb?$AAl?$AAe?$AA?$CI?$AAr?$AAc?$AA?5?$AA?$DN?$AA?5?$AA1?$AA?$CJ?$AA?$AN?$AA?6?$AA?$AA@ 00012880     oal_intr_s3c2440a:map.obj
 0001:000018c0       ??_C@_1EI@HHGIJMMI@?$AA?$CL?$AAO?$AAE?$AAM?$AAI?$AAn?$AAt?$AAe?$AAr?$AAr?$AAu?$AAp?$AAt?$AAE?$AAn?$AAa?$AAb?$AAl?$AAe?$AA?$CI?$AA?$CF?$AAd?$AA?0?$AA?5?$AA0?$AAx?$AA?$CF?$AAx?$AA?0?$AA?5?$AA?$CF?$AAd@ 000128c0     oal_intr_s3c2440a:map.obj
 0001:00001908       ??_C@_1CO@FKOPLHGO@?$AA?9?$AAO?$AAE?$AAM?$AAI?$AAn?$AAt?$AAe?$AAr?$AAr?$AAu?$AAp?$AAt?$AAD?$AAi?$AAs?$AAa?$AAb?$AAl?$AAe?$AA?$AN?$AA?6?$AA?$AA@ 00012908     oal_intr_s3c2440a:map.obj
 0001:00001938       ??_C@_1DG@HOKLDENP@?$AA?$CL?$AAO?$AAE?$AAM?$AAI?$AAn?$AAt?$AAe?$AAr?$AAr?$AAu?$AAp?$AAt?$AAD?$AAi?$AAs?$AAa?$AAb?$AAl?$AAe?$AA?$CI?$AA?$CF?$AAd?$AA?$CJ?$AA?$AN?$AA?6?$AA?$AA@ 00012938     oal_intr_s3c2440a:map.obj
 0001:00001970       ??_C@_1CI@OPHGDEL@?$AA?9?$AAO?$AAE?$AAM?$AAI?$AAn?$AAt?$AAe?$AAr?$AAr?$AAu?$AAp?$AAt?$AAM?$AAa?$AAs?$AAk?$AA?$AN?$AA?6?$AA?$AA@ 00012970     oal_intr_s3c2440a:map.obj
 0001:00001998       ??_C@_1DI@MFEEGIMP@?$AA?$CL?$AAO?$AAE?$AAM?$AAI?$AAn?$AAt?$AAe?$AAr?$AAr?$AAu?$AAp?$AAt?$AAM?$AAa?$AAs?$AAk?$AA?$CI?$AA?$CF?$AAd?$AA?0?$AA?5?$AA?$CF?$AAd?$AA?$CJ?$AA?$AN?$AA?6?$AA?$AA@ 00012998     oal_intr_s3c2440a:map.obj
 0001:000019d0       ??_C@_1CI@IOEKFHHP@?$AA?9?$AAO?$AAE?$AAM?$AAI?$AAn?$AAt?$AAe?$AAr?$AAr?$AAu?$AAp?$AAt?$AAD?$AAo?$AAn?$AAe?$AA?$AN?$AA?6?$AA?$AA@ 000129d0     oal_intr_s3c2440a:map.obj
 0001:000019f8       ??_C@_1DA@HAMHGFMF@?$AA?$CL?$AAO?$AAE?$AAM?$AAI?$AAn?$AAt?$AAe?$AAr?$AAr?$AAu?$AAp?$AAt?$AAD?$AAo?$AAn?$AAe?$AA?$CI?$AA?$CF?$AAd?$AA?$CJ?$AA?$AN?$AA?6?$AA?$AA@ 000129f8     oal_intr_s3c2440a:map.obj
 0001:00001ab8       ??_C@_1DG@HLFPOJPE@?$AA?9?$AAO?$AAE?$AAM?$AAG?$AAe?$AAt?$AAR?$AAe?$AAa?$AAl?$AAT?$AAi?$AAm?$AAe?$AA?$CI?$AAr?$AAc?$AA?5?$AA?$DN?$AA?5?$AA?$CF?$AAd?$AA?$CJ?$AA?$AN?$AA?6?$AA?$AA@ 00012ab8     oal_rtc_s3c2440a:rtc.obj
 0001:00001af0       ??_C@_1EA@JJILIKOH@?$AA?$CL?$AAO?$AAE?$AAM?$AAG?$AAe?$AAt?$AAR?$AAe?$AAa?$AAl?$AAT?$AAi?$AAm?$AAe?$AA?$CI?$AAp?$AAT?$AAi?$AAm?$AAe?$AA?5?$AA?$DN?$AA?5?$AA0?$AAx?$AA?$CF?$AAx?$AA?$CJ?$AA?$AN?$AA?6?$AA?$AA@ 00012af0     oal_rtc_s3c2440a:rtc.obj
 0001:00001b30       ??_C@_1DG@MOFFCBMN@?$AA?9?$AAO?$AAE?$AAM?$AAS?$AAe?$AAt?$AAR?$AAe?$AAa?$AAl?$AAT?$AAi?$AAm?$AAe?$AA?$CI?$AAr?$AAc?$AA?5?$AA?$DN?$AA?5?$AA?$CF?$AAd?$AA?$CJ?$AA?$AN?$AA?6?$AA?$AA@ 00012b30     oal_rtc_s3c2440a:rtc.obj
 0001:00001b68       ??_C@_1LM@OMFKANDO@?$AAE?$AAR?$AAR?$AAO?$AAR?$AA?3?$AA?5?$AAO?$AAE?$AAM?$AAS?$AAe?$AAt?$AAR?$AAe?$AAa?$AAl?$AAT?$AAi?$AAm?$AAe?$AA?3?$AA?5?$AAR?$AAT?$AAC?$AA?5?$AAc?$AAa?$AAn?$AAn?$AAo@ 00012b68     oal_rtc_s3c2440a:rtc.obj
 0001:00001c28       ??_C@_1FE@NLGIDKMA@?$AA?$CL?$AAO?$AAE?$AAM?$AAS?$AAe?$AAt?$AAR?$AAe?$AAa?$AAl?$AAT?$AAi?$AAm?$AAe?$AA?$CI?$AA?$CF?$AAd?$AA?1?$AA?$CF?$AAd?$AA?1?$AA?$CF?$AAd?$AA?5?$AA?$CF?$AAd?$AA?3?$AA?$CF?$AAd?$AA?3?$AA?$CF@ 00012c28     oal_rtc_s3c2440a:rtc.obj
 0001:00001c7c       ??_C@_1DI@MKCLCMDC@?$AA?9?$AAO?$AAE?$AAM?$AAS?$AAe?$AAt?$AAA?$AAl?$AAa?$AAr?$AAm?$AAT?$AAi?$AAm?$AAe?$AA?$CI?$AAr?$AAc?$AA?5?$AA?$DN?$AA?5?$AA?$CF?$AAd?$AA?$CJ?$AA?$AN?$AA?6?$AA?$AA@ 00012c7c     oal_rtc_s3c2440a:rtc.obj
 0001:00001cb8       ??_C@_1FG@LDBAHALN@?$AA?$CL?$AAO?$AAE?$AAM?$AAS?$AAe?$AAt?$AAA?$AAl?$AAa?$AAr?$AAm?$AAT?$AAi?$AAm?$AAe?$AA?$CI?$AA?$CF?$AAd?$AA?1?$AA?$CF?$AAd?$AA?1?$AA?$CF?$AAd?$AA?5?$AA?$CF?$AAd?$AA?3?$AA?$CF?$AAd?$AA?3@ 00012cb8     oal_rtc_s3c2440a:rtc.obj
 0001:00001da0       ??_C@_1DE@DGCDHBJ@?$AA?9?$AAO?$AAE?$AAM?$AAP?$AAr?$AAo?$AAf?$AAi?$AAl?$AAe?$AAT?$AAi?$AAm?$AAe?$AAr?$AAD?$AAi?$AAs?$AAa?$AAb?$AAl?$AAe?$AA?$AN?$AA?6?$AA?$AA@ 00012da0     oal_profiler_s3c2440a:profiler.obj
 0001:00001dd4       ??_C@_1DI@ICCHIFPG@?$AA?$CL?$AAO?$AAE?$AAM?$AAP?$AAr?$AAo?$AAf?$AAi?$AAl?$AAe?$AAT?$AAi?$AAm?$AAe?$AAr?$AAD?$AAi?$AAs?$AAa?$AAb?$AAl?$AAe?$AA?$CI?$AA?$CJ?$AA?$AN?$AA?6?$AA?$AA@ 00012dd4     oal_profiler_s3c2440a:profiler.obj
 0001:00001e0c       ??_C@_1DC@ONFHCFK@?$AA?9?$AAO?$AAE?$AAM?$AAP?$AAr?$AAo?$AAf?$AAi?$AAl?$AAe?$AAT?$AAi?$AAm?$AAe?$AAr?$AAE?$AAn?$AAa?$AAb?$AAl?$AAe?$AA?$AN?$AA?6?$AA?$AA@ 00012e0c     oal_profiler_s3c2440a:profiler.obj
 0001:00001e40       ??_C@_1DK@OJEFEGCL@?$AA?$CL?$AAO?$AAE?$AAM?$AAP?$AAr?$AAo?$AAf?$AAi?$AAl?$AAe?$AAT?$AAi?$AAm?$AAe?$AAr?$AAE?$AAn?$AAa?$AAb?$AAl?$AAe?$AA?$CI?$AA?$CF?$AAd?$AA?$CJ?$AA?$AN?$AA?6?$AA?$AA@ 00012e40     oal_profiler_s3c2440a:profiler.obj
 0001:00001f10       ??_C@_1BK@GBCILHNM@?$AA?$CL?$AAO?$AAE?$AAM?$AAP?$AAo?$AAw?$AAe?$AAr?$AAO?$AAf?$AAf?$AA?$AA@ 00012f10     oal_power_s3c2440a:off.obj
 0001:00001f2c       ??_C@_1BK@FOPGGKGN@?$AA?9?$AAO?$AAE?$AAM?$AAP?$AAo?$AAw?$AAe?$AAr?$AAO?$AAf?$AAf?$AA?$AA@ 00012f2c     oal_power_s3c2440a:off.obj
 0001:00001fd8       ??_C@_1DC@EGGJEANK@?$AA?9?$AAO?$AAE?$AAM?$AAI?$AAo?$AAC?$AAo?$AAn?$AAt?$AAr?$AAo?$AAl?$AA?$CI?$AAr?$AAc?$AA?5?$AA?$DN?$AA?5?$AA?$CF?$AAd?$AA?$CJ?$AA?$AN?$AA?6?$AA?$AA@ 00012fd8     oal_ioctl_s3c2440a:ioctl.obj
 0001:00002010       ??_C@_1HM@LHHDIECD@?$AAO?$AAE?$AAM?$AAI?$AAo?$AAC?$AAo?$AAn?$AAt?$AAr?$AAo?$AAl?$AA?3?$AA?5?$AAU?$AAn?$AAs?$AAu?$AAp?$AAp?$AAo?$AAr?$AAt?$AAe?$AAd?$AA?5?$AAC?$AAo?$AAd?$AAe?$AA?5?$AA0@ 00013010     oal_ioctl_s3c2440a:ioctl.obj
 0001:00002090       ??_C@_1GA@KJDOLNLD@?$AA?$CL?$AAO?$AAE?$AAM?$AAI?$AAo?$AAC?$AAo?$AAn?$AAt?$AAr?$AAo?$AAl?$AA?$CI?$AA0?$AAx?$AA?$CF?$AAx?$AA?0?$AA?5?$AA0?$AAx?$AA?$CF?$AAx?$AA?0?$AA?5?$AA?$CF?$AAd?$AA?0?$AA?5?$AA0?$AAx@ 00013090     oal_ioctl_s3c2440a:ioctl.obj
 0001:00002180       ??_C@_1CC@PNKMBGCL@?$AA?9?$AAO?$AAA?$AAL?$AAA?$AAr?$AAg?$AAs?$AAI?$AAn?$AAi?$AAt?$AA?$CI?$AA?$CJ?$AA?$AN?$AA?6?$AA?$AA@ 00013180     s3c2440a_args:args.obj
 0001:000021a8       ??_C@_1EA@GBPBKONK@?$AAA?$AAr?$AAg?$AAu?$AAm?$AAe?$AAn?$AAt?$AAs?$AA?5?$AAa?$AAr?$AAe?$AAa?$AA?5?$AAi?$AAs?$AA?5?$AAi?$AAn?$AAi?$AAt?$AAi?$AAa?$AAl?$AAi?$AAz?$AAe?$AAd?$AA?$AN?$AA?6?$AA?$AA@ 000131a8     s3c2440a_args:args.obj
 0001:000021e8       ??_C@_06EHHMBBMJ@UP2440?$AA@ 000131e8     s3c2440a_args:args.obj
 0001:000021f0       ??_C@_1EC@EAAADKMJ@?$AAA?$AAr?$AAg?$AAu?$AAm?$AAe?$AAn?$AAt?$AAs?$AA?5?$AAa?$AAr?$AAe?$AAa?$AA?5?$AAh?$AAa?$AAs?$AA?5?$AAs?$AAo?$AAm?$AAe?$AA?5?$AAv?$AAa?$AAl?$AAu?$AAe?$AAs?$AA?$AN?$AA?6@ 000131f0     s3c2440a_args:args.obj
 0001:00002234       ??_C@_1CC@CGKBPAJP@?$AA?$CL?$AAO?$AAA?$AAL?$AAA?$AAr?$AAg?$AAs?$AAI?$AAn?$AAi?$AAt?$AA?$CI?$AA?$CJ?$AA?$AN?$AA?6?$AA?$AA@ 00013234     s3c2440a_args:args.obj
 0001:00002258       ??_C@_1EA@DJGHLELP@?$AA?9?$AAO?$AAA?$AAL?$AAA?$AAr?$AAg?$AAs?$AAQ?$AAu?$AAe?$AAr?$AAy?$AA?$CI?$AAp?$AAD?$AAa?$AAt?$AAa?$AA?5?$AA?$DN?$AA?5?$AA0?$AAx?$AA?$CF?$AA0?$AA8?$AAx?$AA?$CJ?$AA?$AN?$AA?6?$AA?$AA@ 00013258     s3c2440a_args:args.obj
 0001:00002298       ??_C@_1CI@CLMEBIJE@?$AA?$CL?$AAO?$AAA?$AAL?$AAA?$AAr?$AAg?$AAs?$AAQ?$AAu?$AAe?$AAr?$AAy?$AA?$CI?$AA?$CF?$AAd?$AA?$CJ?$AA?$AN?$AA?6?$AA?$AA@ 00013298     s3c2440a_args:args.obj
 0001:00002350       ??_C@_1GM@LBPDAPNJ@?$AAI?$AAN?$AAF?$AAO?$AA?3?$AAO?$AAA?$AAL?$AAL?$AAo?$AAg?$AAS?$AAe?$AAt?$AAZ?$AAo?$AAn?$AAe?$AAs?$AA?3?$AA?5?$AAd?$AAp?$AAC?$AAu?$AAr?$AAS?$AAe?$AAt?$AAt?$AAi?$AAn@ 00013350     oal_log:debug.obj
 0001:000024e0       ??_C@_1CO@MMIOJNEP@?$AA?9?$AAB?$AAS?$AAP?$AAI?$AAn?$AAt?$AAr?$AAI?$AAn?$AAi?$AAt?$AA?$CI?$AAr?$AAc?$AA?5?$AA?$DN?$AA?5?$AA1?$AA?$CJ?$AA?$AN?$AA?6?$AA?$AA@ 000134e0     oal:intr.obj
 0001:00002510       ??_C@_1BO@PJBAJAIC@?$AA?$CL?$AAB?$AAS?$AAP?$AAI?$AAn?$AAt?$AAr?$AAI?$AAn?$AAi?$AAt?$AA?$AN?$AA?6?$AA?$AA@ 00013510     oal:intr.obj
 0001:00002530       ??_C@_1DM@POOLLMMJ@?$AA?9?$AAB?$AAS?$AAP?$AAI?$AAn?$AAt?$AAr?$AAR?$AAe?$AAq?$AAu?$AAe?$AAs?$AAt?$AAI?$AAr?$AAq?$AA?$CI?$AAr?$AAc?$AA?5?$AA?$DN?$AA?5?$AA?$CF?$AAd?$AA?$CJ?$AA?$AN?$AA?6?$AA?$AA@ 00013530     oal:intr.obj
 0001:00002570       ??_C@_1HM@BJHIHKHI@?$AA?$CL?$AAB?$AAS?$AAP?$AAI?$AAn?$AAt?$AAr?$AAR?$AAe?$AAq?$AAu?$AAe?$AAs?$AAt?$AAI?$AAr?$AAq?$AA?$CI?$AA0?$AAx?$AA?$CF?$AA0?$AA8?$AAx?$AA?9?$AA?$DO?$AA?$CF?$AAd?$AA?1?$AA?$CF?$AAd@ 00013570     oal:intr.obj
 0001:000025ec       ??_C@_1DM@GADKKEEP@?$AA?9?$AAB?$AAS?$AAP?$AAI?$AAn?$AAt?$AAr?$AAE?$AAn?$AAa?$AAb?$AAl?$AAe?$AAI?$AAr?$AAq?$AA?$CI?$AAi?$AAr?$AAq?$AA?5?$AA?$DN?$AA?5?$AA?$CF?$AAd?$AA?$CJ?$AA?$AN?$AA?6?$AA?$AA@ 000135ec     oal:intr.obj
 0001:00002628       ??_C@_1DA@PAHKCAOI@?$AA?$CL?$AAB?$AAS?$AAP?$AAI?$AAn?$AAt?$AAr?$AAE?$AAn?$AAa?$AAb?$AAl?$AAe?$AAI?$AAr?$AAq?$AA?$CI?$AA?$CF?$AAd?$AA?$CJ?$AA?$AN?$AA?6?$AA?$AA@ 00013628     oal:intr.obj
 0001:00002658       ??_C@_1DM@GBABPOAA@?$AA?9?$AAB?$AAS?$AAP?$AAI?$AAn?$AAt?$AAr?$AAD?$AAi?$AAs?$AAa?$AAb?$AAl?$AAe?$AAI?$AAr?$AAq?$AA?$CI?$AAi?$AAr?$AAq?$AA?5?$AA?$DN?$AA?5?$AA?$CF?$AAd?$AA?$AN?$AA?6?$AA?$AA@ 00013658     oal:intr.obj
 0001:00002694       ??_C@_1DC@CAJPFJLN@?$AA?$CL?$AAB?$AAS?$AAP?$AAI?$AAn?$AAt?$AAr?$AAD?$AAi?$AAs?$AAa?$AAb?$AAl?$AAe?$AAI?$AAr?$AAq?$AA?$CI?$AA?$CF?$AAd?$AA?$CJ?$AA?$AN?$AA?6?$AA?$AA@ 00013694     oal:intr.obj
 0001:000026c8       ??_C@_1DI@MKBFOAP@?$AA?9?$AAB?$AAS?$AAP?$AAI?$AAn?$AAt?$AAr?$AAD?$AAo?$AAn?$AAe?$AAI?$AAr?$AAq?$AA?$CI?$AAi?$AAr?$AAq?$AA?5?$AA?$DN?$AA?5?$AA?$CF?$AAd?$AA?$CJ?$AA?$AN?$AA?6?$AA?$AA@ 000136c8     oal:intr.obj
 0001:00002700       ??_C@_1CM@KNGKPFDP@?$AA?$CL?$AAB?$AAS?$AAP?$AAI?$AAn?$AAt?$AAr?$AAD?$AAo?$AAn?$AAe?$AAI?$AAr?$AAq?$AA?$CI?$AA?$CF?$AAd?$AA?$CJ?$AA?$AN?$AA?6?$AA?$AA@ 00013700     oal:intr.obj
 0001:000027c0       ??_C@_1BM@DKMBKDMN@?$AAB?$AAS?$AAP?$AAP?$AAo?$AAw?$AAe?$AAr?$AAO?$AAf?$AAf?$AA?$CI?$AA?$CJ?$AA?$AA@ 000137c0     oal:power.obj
 0001:000027dc       ??_C@_1BK@FJJMHDKE@?$AAB?$AAS?$AAP?$AAP?$AAo?$AAw?$AAe?$AAr?$AAO?$AAn?$AA?$CI?$AA?$CJ?$AA?$AA@ 000137dc     oal:power.obj
 0001:000027f8       ??_C@_1BA@OIOAAIEF@?$AAA?$AAR?$AAM?$AA9?$AA2?$AA0?$AAT?$AA?$AA@ 000137f8     oal:ioctl.obj
 0001:00002808       ??_C@_1BC@LMBLANDI@?$AAS?$AA3?$AAC?$AA2?$AA4?$AA4?$AA0?$AAA?$AA?$AA@ 00013808     oal:ioctl.obj
 0001:0000281c       ??_C@_1BA@DIDLMLHK@?$AAS?$AAa?$AAm?$AAs?$AAu?$AAn?$AAg?$AA?$AA@ 0001381c     oal:ioctl.obj
 0001:0000282c       ??_C@_1CC@BFJEGPMF@?$AAw?$AAw?$AAw?$AA?4?$AAe?$AAm?$AAb?$AAe?$AAd?$AAs?$AAk?$AAy?$AA?4?$AAn?$AAe?$AAt?$AA?$AA@ 0001382c     oal:ioctl.obj
 0001:00002850       ??_C@_1O@LDNGMLFM@?$AAU?$AAP?$AA2?$AA4?$AA4?$AA0?$AA?$AA@ 00013850     oal:ioctl.obj
 0001:000029b0       g_oalIoCtlTable            000139b0     oal:ioctl.obj
 0001:00002ac4       ??_C@_1DC@IEBLKGGG@?$AAO?$AAE?$AAM?$AA?3?$AA?5?$AAU?$AAn?$AAk?$AAn?$AAo?$AAw?$AAn?$AA?5?$AAf?$AAl?$AAa?$AAg?$AA?5?$AA0?$AAx?$AA?$CF?$AAx?$AA?$AN?$AA?6?$AA?$AA@ 00013ac4     oal:ioctl.obj
 0001:00002af8       ??_C@_1DM@NJPOIGLI@?$AAO?$AAA?$AAL?$AAI?$AAo?$AAC?$AAt?$AAl?$AAH?$AAa?$AAl?$AAG?$AAe?$AAt?$AAH?$AAi?$AAv?$AAe?$AAC?$AAl?$AAe?$AAa?$AAn?$AAF?$AAl?$AAa?$AAg?$AA?$AN?$AA?6?$AA?$AA@ 00013af8     oal:ioctl.obj
 0001:00002b34       ??_C@_1CE@MHOOHND@?$AA?7?$AAb?$AAP?$AAa?$AAr?$AAt?$AAT?$AAy?$AAp?$AAe?$AA?$DN?$AA0?$AAx?$AA?$CF?$AAx?$AA?$AN?$AA?6?$AA?$AA@ 00013b34     oal:ioctl.obj
 0001:00002b58       ??_C@_1CK@CAGCNJNE@?$AA?7?$AAd?$AAw?$AAA?$AAt?$AAt?$AAr?$AAi?$AAb?$AAu?$AAt?$AAe?$AAs?$AA?$DN?$AA0?$AAx?$AA?$CF?$AAx?$AA?$AN?$AA?6?$AA?$AA@ 00013b58     oal:ioctl.obj
 0001:00002b84       ??_C@_1CG@OMNJANLP@?$AA?7?$AAs?$AAn?$AAN?$AAu?$AAm?$AAS?$AAe?$AAc?$AAt?$AAo?$AAr?$AAs?$AA?$DN?$AA?$CF?$AAd?$AA?$AN?$AA?6?$AA?$AA@ 00013b84     oal:ioctl.obj
 0001:00002bac       ??_C@_1CM@NMLIAFEC@?$AA?7?$AAs?$AAz?$AAP?$AAa?$AAr?$AAt?$AAi?$AAt?$AAi?$AAo?$AAn?$AAN?$AAa?$AAm?$AAe?$AA?$DN?$AA?$CF?$AAs?$AA?$AN?$AA?6?$AA?$AA@ 00013bac     oal:ioctl.obj
 0001:00002bd8       ??_C@_1DA@IEDIKEHO@?$AAS?$AAt?$AAo?$AAr?$AAe?$AA?5?$AAp?$AAa?$AAr?$AAt?$AAi?$AAt?$AAi?$AAo?$AAn?$AA?5?$AAi?$AAn?$AAf?$AAo?$AA?3?$AA?$AN?$AA?6?$AA?$AA@ 00013bd8     oal:ioctl.obj
 0001:00002c08       ??_C@_1DK@CGLHGOPC@?$AAO?$AAA?$AAL?$AAI?$AAo?$AAC?$AAt?$AAl?$AAH?$AAa?$AAl?$AAF?$AAo?$AAr?$AAm?$AAa?$AAt?$AAP?$AAa?$AAr?$AAt?$AAi?$AAt?$AAi?$AAo?$AAn?$AA?$AN?$AA?6?$AA?$AA@ 00013c08     oal:ioctl.obj
 0001:00002c44       ??_C@_1DO@FGGICPPB@?$AA?9?$AAO?$AAA?$AAL?$AAI?$AAo?$AAC?$AAt?$AAl?$AAH?$AAa?$AAl?$AAI?$AAn?$AAi?$AAt?$AAR?$AAT?$AAC?$AA?$CI?$AAr?$AAc?$AA?5?$AA?$DN?$AA?5?$AA?$CF?$AAd?$AA?$CJ?$AA?$AN?$AA?6?$AA?$AA@ 00013c44     oal:ioctl.obj
 0001:00002c88       ??_C@_1FO@ODJLIDFO@?$AAE?$AAR?$AAR?$AAO?$AAR?$AA?3?$AA?5?$AAO?$AAA?$AAL?$AAI?$AAo?$AAC?$AAt?$AAl?$AAH?$AAa?$AAl?$AAI?$AAn?$AAi?$AAt?$AAR?$AAT?$AAC?$AA?3?$AA?5?$AAI?$AAn?$AAv?$AAa?$AAl@ 00013c88     oal:ioctl.obj
 0001:00002ce8       ??_C@_1DG@PECFOPGF@?$AA?$CL?$AAO?$AAA?$AAL?$AAI?$AAo?$AAC?$AAt?$AAl?$AAH?$AAa?$AAl?$AAI?$AAn?$AAi?$AAt?$AAR?$AAT?$AAC?$AA?$CI?$AA?4?$AA?4?$AA?4?$AA?$CJ?$AA?$AN?$AA?6?$AA?$AA@ 00013ce8     oal:ioctl.obj
 0001:00002db0       ??_C@_1EI@PJAHKOP@?$AA?9?$AAO?$AAA?$AAL?$AAI?$AAo?$AAc?$AAt?$AAl?$AAH?$AAa?$AAl?$AAG?$AAe?$AAt?$AAC?$AAa?$AAc?$AAh?$AAe?$AAI?$AAn?$AAf?$AAo?$AA?$CI?$AAr?$AAc?$AA?5?$AA?$DN?$AA?5?$AA?$CF?$AAd@ 00013db0     oal_cache_s3c2440a:ioctl.obj
 0001:00002df8       ??_C@_1GE@MBKHJMBD@?$AAW?$AAA?$AAR?$AAN?$AA?3?$AA?5?$AAO?$AAA?$AAL?$AAI?$AAo?$AAc?$AAt?$AAl?$AAH?$AAa?$AAl?$AAG?$AAe?$AAt?$AAC?$AAa?$AAc?$AAh?$AAe?$AAI?$AAn?$AAf?$AAo?$AA?3?$AA?5?$AAB@ 00013df8     oal_cache_s3c2440a:ioctl.obj
 0001:00002e60       ??_C@_1HM@KKNPJOOC@?$AAW?$AAA?$AAR?$AAN?$AA?3?$AA?5?$AAO?$AAA?$AAL?$AAI?$AAo?$AAc?$AAt?$AAl?$AAH?$AAa?$AAl?$AAG?$AAe?$AAt?$AAC?$AAa?$AAc?$AAh?$AAe?$AAI?$AAn?$AAf?$AAo?$AA?3?$AA?5?$AAI@ 00013e60     oal_cache_s3c2440a:ioctl.obj
 0001:00002ee0       ??_C@_1EA@GDPMLOAC@?$AA?$CL?$AAO?$AAA?$AAL?$AAI?$AAo?$AAc?$AAt?$AAl?$AAH?$AAa?$AAl?$AAG?$AAe?$AAt?$AAC?$AAa?$AAc?$AAh?$AAe?$AAI?$AAn?$AAf?$AAo?$AA?$CI?$AA?4?$AA?4?$AA?4?$AA?$CJ?$AA?$AN?$AA?6?$AA?$AA@ 00013ee0     oal_cache_s3c2440a:ioctl.obj
 0001:00002fb0       ??_C@_1EM@KGGHBFBJ@?$AA?$CL?$AAO?$AAA?$AAL?$AAI?$AAo?$AAC?$AAt?$AAl?$AAH?$AAa?$AAl?$AAR?$AAe?$AAq?$AAu?$AAe?$AAs?$AAt?$AAS?$AAy?$AAs?$AAI?$AAn?$AAt?$AAr?$AA?$CI?$AAr?$AAc?$AA?5?$AA?$DN?$AA?5@ 00013fb0     oal_intr_s3c2440a:ioctl.obj
 0001:00003000       ??_C@_1GK@HKEIPOOO@?$AAW?$AAA?$AAR?$AAN?$AA?3?$AA?5?$AAI?$AAO?$AAC?$AAT?$AAL?$AA_?$AAH?$AAA?$AAL?$AA_?$AAR?$AAE?$AAQ?$AAU?$AAE?$AAS?$AAT?$AA_?$AAS?$AAY?$AAS?$AAI?$AAN?$AAT?$AAR?$AA?5@ 00014000     oal_intr_s3c2440a:ioctl.obj
 0001:0000306c       ??_C@_1DK@BMKLIPKJ@?$AA?$CL?$AAO?$AAA?$AAL?$AAI?$AAo?$AAC?$AAt?$AAl?$AAH?$AAa?$AAl?$AAR?$AAe?$AAq?$AAu?$AAe?$AAs?$AAt?$AAS?$AAy?$AAs?$AAI?$AAn?$AAt?$AAr?$AA?$AN?$AA?6?$AA?$AA@ 0001406c     oal_intr_s3c2440a:ioctl.obj
 0001:000030a8       ??_C@_1GK@LIJAJEGD@?$AAW?$AAA?$AAR?$AAN?$AA?3?$AA?5?$AAI?$AAO?$AAC?$AAT?$AAL?$AA_?$AAH?$AAA?$AAL?$AA_?$AAR?$AAE?$AAL?$AAE?$AAA?$AAS?$AAE?$AA_?$AAS?$AAY?$AAS?$AAI?$AAN?$AAT?$AAR?$AA?5@ 000140a8     oal_intr_s3c2440a:ioctl.obj
 0001:00003118       ??_C@_1EM@DFAKLPBP@?$AA?9?$AAO?$AAA?$AAL?$AAI?$AAo?$AAC?$AAt?$AAl?$AAH?$AAa?$AAl?$AAR?$AAe?$AAq?$AAu?$AAe?$AAs?$AAt?$AAS?$AAy?$AAs?$AAI?$AAn?$AAt?$AAr?$AA?$CI?$AAr?$AAc?$AA?5?$AA?$DN?$AA?5@ 00014118     oal_intr_s3c2440a:ioctl.obj
 0001:00003168       ??_C@_1GC@BACPHDPH@?$AAW?$AAA?$AAR?$AAN?$AA?3?$AA?5?$AAI?$AAO?$AAC?$AAT?$AAL?$AA_?$AAH?$AAA?$AAL?$AA_?$AAR?$AAE?$AAQ?$AAU?$AAE?$AAS?$AAT?$AA_?$AAI?$AAR?$AAQ?$AA?5?$AAi?$AAn?$AAv?$AAa@ 00014168     oal_intr_s3c2440a:ioctl.obj
 0001:000031cc       ??_C@_1DC@DIKJBBIL@?$AA?$CL?$AAO?$AAA?$AAL?$AAI?$AAo?$AAC?$AAt?$AAl?$AAH?$AAa?$AAl?$AAR?$AAe?$AAq?$AAu?$AAe?$AAs?$AAt?$AAI?$AAr?$AAq?$AA?$AN?$AA?6?$AA?$AA@ 000141cc     oal_intr_s3c2440a:ioctl.obj
 0001:00003290       ??_C@_1EE@EOJLKFMG@?$AA?$CL?$AAO?$AAA?$AAL?$AAI?$AAo?$AAC?$AAt?$AAl?$AAH?$AAa?$AAl?$AAE?$AAn?$AAa?$AAb?$AAl?$AAe?$AAW?$AAa?$AAk?$AAe?$AA?$CI?$AAr?$AAc?$AA?5?$AA?$DN?$AA?5?$AA?$CF?$AAd?$AA?$CJ?$AA?$AN@ 00014290     oal_power_s3c2440a:ioctl.obj
 0001:000032d4       ??_C@_1DG@KKNHDHOB@?$AAI?$AAn?$AAv?$AAa?$AAl?$AAi?$AAd?$AA?5?$AAS?$AAY?$AAS?$AAI?$AAN?$AAT?$AAR?$AA?5?$AAv?$AAa?$AAl?$AAu?$AAe?$AA?5?$AA?$CF?$AAd?$AA?$AN?$AA?6?$AA?$AA@ 000142d4     oal_power_s3c2440a:ioctl.obj
 0001:0000330c       ??_C@_1DO@BLFFHCCO@?$AAE?$AAR?$AAR?$AAO?$AAR?$AA?3?$AA?5?$AAO?$AAA?$AAL?$AAI?$AAo?$AAC?$AAt?$AAl?$AAH?$AAa?$AAl?$AAE?$AAn?$AAa?$AAb?$AAl?$AAe?$AAW?$AAa?$AAk?$AAe?$AA?3?$AA?5?$AA?$AA@ 0001430c     oal_power_s3c2440a:ioctl.obj
 0001:00003350       ??_C@_1EO@OMKOKHHJ@?$AA?$CL?$AAO?$AAA?$AAL?$AAI?$AAo?$AAC?$AAt?$AAl?$AAH?$AAa?$AAl?$AAE?$AAn?$AAa?$AAb?$AAl?$AAe?$AAW?$AAa?$AAk?$AAe?$AA?$CI?$AAs?$AAy?$AAs?$AAI?$AAn?$AAt?$AAr?$AA?5?$AA?$DN@ 00014350     oal_power_s3c2440a:ioctl.obj
 0001:000033a0       ??_C@_1EG@KJIPIGDP@?$AA?$CL?$AAO?$AAA?$AAL?$AAI?$AAo?$AAC?$AAt?$AAl?$AAH?$AAa?$AAl?$AAD?$AAi?$AAs?$AAa?$AAb?$AAl?$AAe?$AAW?$AAa?$AAk?$AAe?$AA?$CI?$AAr?$AAc?$AA?5?$AA?$DN?$AA?5?$AA?$CF?$AAd?$AA?$CJ@ 000143a0     oal_power_s3c2440a:ioctl.obj
 0001:000033e8       ??_C@_1EA@ENICBBFD@?$AAE?$AAR?$AAR?$AAO?$AAR?$AA?3?$AA?5?$AAO?$AAA?$AAL?$AAI?$AAo?$AAC?$AAt?$AAl?$AAH?$AAa?$AAl?$AAD?$AAi?$AAs?$AAa?$AAb?$AAl?$AAe?$AAW?$AAa?$AAk?$AAe?$AA?3?$AA?5?$AA?$AA@ 000143e8     oal_power_s3c2440a:ioctl.obj
 0001:00003428       ??_C@_1FA@IFHNBJAE@?$AA?$CL?$AAO?$AAA?$AAL?$AAI?$AAo?$AAC?$AAt?$AAl?$AAH?$AAa?$AAl?$AAD?$AAi?$AAs?$AAa?$AAb?$AAl?$AAe?$AAW?$AAa?$AAk?$AAe?$AA?$CI?$AAs?$AAy?$AAs?$AAI?$AAn?$AAt?$AAr?$AA?5@ 00014428     oal_power_s3c2440a:ioctl.obj
 0001:00003478       ??_C@_1GG@MBGEPMGD@?$AA?$CL?$AAO?$AAA?$AAL?$AAI?$AAo?$AAC?$AAt?$AAl?$AAH?$AAa?$AAl?$AAG?$AAe?$AAt?$AAW?$AAa?$AAk?$AAe?$AAS?$AAo?$AAu?$AAr?$AAc?$AAe?$AA?$CI?$AAr?$AAc?$AA?5?$AA?$DN?$AA?5?$AA?$CF@ 00014478     oal_power_s3c2440a:ioctl.obj
 0001:000034e0       ??_C@_1DI@DFOIFPDM@?$AA?$CL?$AAO?$AAA?$AAL?$AAI?$AAo?$AAC?$AAt?$AAl?$AAH?$AAa?$AAl?$AAG?$AAe?$AAt?$AAW?$AAa?$AAk?$AAe?$AAS?$AAo?$AAu?$AAr?$AAc?$AAe?$AA?$AN?$AA?6?$AA?$AA@ 000144e0     oal_power_s3c2440a:ioctl.obj
 0001:000035a8       ??_C@_1GK@GKDOOKDE@?$AAE?$AAR?$AAR?$AAO?$AAR?$AA?3?$AA?5?$AAO?$AAA?$AAL?$AAI?$AAo?$AAC?$AAt?$AAl?$AAH?$AAa?$AAl?$AAU?$AAp?$AAd?$AAa?$AAt?$AAe?$AAM?$AAo?$AAd?$AAe?$AA?3?$AA?5?$AAI?$AAn@ 000145a8     oal_ioctl_s3c2440a:imgupd.obj
 0001:00003618       ??_C@_1IG@BENIAHFO@?$AAE?$AAR?$AAR?$AAO?$AAR?$AA?3?$AA?5?$AAO?$AAA?$AAL?$AAI?$AAo?$AAC?$AAt?$AAl?$AAH?$AAa?$AAl?$AAU?$AAp?$AAd?$AAa?$AAt?$AAe?$AAM?$AAo?$AAd?$AAe?$AA?3?$AA?5?$AAD?$AAe@ 00014618     oal_ioctl_s3c2440a:imgupd.obj
 0001:00003730       ??_C@_1FA@KIKMJANO@?$AA?9?$AAO?$AAA?$AAL?$AAI?$AAo?$AAC?$AAt?$AAl?$AAH?$AAa?$AAl?$AAG?$AAe?$AAt?$AAR?$AAe?$AAg?$AAS?$AAe?$AAc?$AAu?$AAr?$AAe?$AAK?$AAe?$AAy?$AAs?$AA?$CI?$AAr?$AAc?$AA?5@ 00014730     oal_ioctl_s3c2440a:securekeys.obj
 0001:00003810       ??_C@_1EE@LLJFHFAM@?$AA?9?$AAO?$AAA?$AAL?$AAI?$AAo?$AAC?$AAt?$AAl?$AAP?$AAr?$AAo?$AAc?$AAe?$AAs?$AAs?$AAo?$AAr?$AAI?$AAn?$AAf?$AAo?$AA?$CI?$AAr?$AAc?$AA?5?$AA?$DN?$AA?5?$AA?$CF?$AAd?$AA?$CJ?$AA?$AN@ 00014810     oal_ioctl_s3c2440a:procinfo.obj
 0001:00003858       ??_C@_1GA@EACFLEMI@?$AAW?$AAA?$AAR?$AAN?$AA?3?$AA?5?$AAO?$AAA?$AAL?$AAI?$AAo?$AAC?$AAt?$AAl?$AAP?$AAr?$AAo?$AAc?$AAe?$AAs?$AAs?$AAo?$AAr?$AAI?$AAn?$AAf?$AAo?$AA?3?$AA?5?$AAB?$AAu?$AAf@ 00014858     oal_ioctl_s3c2440a:procinfo.obj
 0001:000038b8       ??_C@_1GI@EFCEJCLG@?$AAE?$AAR?$AAR?$AAO?$AAR?$AA?3?$AAO?$AAA?$AAL?$AAI?$AAo?$AAC?$AAt?$AAl?$AAP?$AAr?$AAo?$AAc?$AAe?$AAs?$AAs?$AAo?$AAr?$AAI?$AAn?$AAf?$AAo?$AA?3?$AA?5?$AAV?$AAe?$AAn@ 000148b8     oal_ioctl_s3c2440a:procinfo.obj
 0001:00003920       ??_C@_1GE@JPAPEENG@?$AAE?$AAR?$AAR?$AAO?$AAR?$AA?3?$AAO?$AAA?$AAL?$AAI?$AAo?$AAC?$AAt?$AAl?$AAP?$AAr?$AAo?$AAc?$AAe?$AAs?$AAs?$AAo?$AAr?$AAI?$AAn?$AAf?$AAo?$AA?3?$AA?5?$AAN?$AAa?$AAm@ 00014920     oal_ioctl_s3c2440a:procinfo.obj
 0001:00003988       ??_C@_1GE@OFFJPJMM@?$AAE?$AAR?$AAR?$AAO?$AAR?$AA?3?$AAO?$AAA?$AAL?$AAI?$AAo?$AAC?$AAt?$AAl?$AAP?$AAr?$AAo?$AAc?$AAe?$AAs?$AAs?$AAo?$AAr?$AAI?$AAn?$AAf?$AAo?$AA?3?$AA?5?$AAC?$AAo?$AAr@ 00014988     oal_ioctl_s3c2440a:procinfo.obj
 0001:000039f0       ??_C@_1GK@MJNAOGCM@?$AAW?$AAA?$AAR?$AAN?$AA?3?$AA?5?$AAO?$AAA?$AAL?$AAI?$AAo?$AAC?$AAt?$AAl?$AAP?$AAr?$AAo?$AAc?$AAe?$AAs?$AAs?$AAo?$AAr?$AAI?$AAn?$AAf?$AAo?$AA?3?$AA?5?$AAI?$AAn?$AAv@ 000149f0     oal_ioctl_s3c2440a:procinfo.obj
 0001:00003a5c       ??_C@_1DM@NEACNOML@?$AA?$CL?$AAO?$AAA?$AAL?$AAI?$AAo?$AAC?$AAt?$AAl?$AAP?$AAr?$AAo?$AAc?$AAe?$AAs?$AAs?$AAo?$AAr?$AAI?$AAn?$AAf?$AAo?$AA?$CI?$AA?4?$AA?4?$AA?4?$AA?$CJ?$AA?$AN?$AA?6?$AA?$AA@ 00014a5c     oal_ioctl_s3c2440a:procinfo.obj
 0001:00003b28       ??_C@_1EK@CIONDGAI@?$AA?9?$AAO?$AAA?$AAL?$AAI?$AAo?$AAC?$AAt?$AAl?$AAH?$AAa?$AAl?$AAG?$AAe?$AAt?$AAR?$AAa?$AAn?$AAd?$AAo?$AAm?$AAS?$AAe?$AAe?$AAd?$AA?$CI?$AAr?$AAc?$AA?5?$AA?$DN?$AA?5?$AA?$CF@ 00014b28     oal_ioctl_s3c2440a:randomseed.obj
 0001:00003b78       ??_C@_1GI@DGLGODAM@?$AAW?$AAA?$AAR?$AAN?$AA?3?$AA?5?$AAO?$AAA?$AAL?$AAI?$AAo?$AAC?$AAt?$AAl?$AAH?$AAa?$AAl?$AAG?$AAe?$AAt?$AAR?$AAa?$AAn?$AAd?$AAo?$AAm?$AAS?$AAe?$AAe?$AAd?$AA?3?$AA?5@ 00014b78     oal_ioctl_s3c2440a:randomseed.obj
 0001:00003be0       ??_C@_1EC@KGKJCIAM@?$AA?$CL?$AAO?$AAA?$AAL?$AAI?$AAo?$AAc?$AAt?$AAl?$AAH?$AAa?$AAl?$AAG?$AAe?$AAt?$AAR?$AAa?$AAn?$AAd?$AAo?$AAm?$AAS?$AAe?$AAe?$AAd?$AA?$CI?$AA?4?$AA?4?$AA?4?$AA?$CJ?$AA?$AN?$AA?6@ 00014be0     oal_ioctl_s3c2440a:randomseed.obj
 0001:00003cc8       ??_C@_1FK@JJDHOCFD@?$AAW?$AAA?$AAR?$AAN?$AA?3?$AA?5?$AAO?$AAA?$AAL?$AAI?$AAo?$AAC?$AAt?$AAl?$AAH?$AAa?$AAl?$AAG?$AAe?$AAt?$AAU?$AAU?$AAI?$AAD?$AA?3?$AA?5?$AAB?$AAu?$AAf?$AAf?$AAe?$AAr@ 00014cc8     oal_ioctl_s3c2440a:uuid.obj
 0001:00003d28       ??_C@_1NA@DANHDCDJ@?$AAW?$AAa?$AAr?$AAn?$AAi?$AAn?$AAg?$AA?3?$AA?5?$AAI?$AAO?$AAC?$AAT?$AAL?$AA_?$AAH?$AAA?$AAL?$AA_?$AAG?$AAE?$AAT?$AA_?$AAU?$AAU?$AAI?$AAD?$AA?5?$AAi?$AAs?$AA?5?$AAu@ 00014d28     oal_ioctl_s3c2440a:uuid.obj
 0001:00003df8       ??_C@_1HC@GCDGDEMK@?$AAE?$AAR?$AAR?$AAO?$AAR?$AA?3?$AA?5?$AAO?$AAA?$AAL?$AAI?$AAo?$AAC?$AAt?$AAl?$AAH?$AAa?$AAl?$AAG?$AAe?$AAt?$AAU?$AAU?$AAI?$AAD?$AA?3?$AA?5?$AAD?$AAe?$AAv?$AAi?$AAc@ 00014df8     oal_ioctl_s3c2440a:uuid.obj
 0001:00003e70       ??_C@_1GE@PBBGNNAO@?$AAW?$AAA?$AAR?$AAN?$AA?3?$AA?5?$AAO?$AAA?$AAL?$AAI?$AAo?$AAC?$AAt?$AAl?$AAH?$AAa?$AAl?$AAG?$AAe?$AAt?$AAU?$AAU?$AAI?$AAD?$AA?3?$AA?5?$AAI?$AAn?$AAv?$AAa?$AAl?$AAi@ 00014e70     oal_ioctl_s3c2440a:uuid.obj
 0001:00003ed8       ??_C@_1OE@KFAEFCPB@?$AAW?$AAa?$AAr?$AAn?$AAi?$AAn?$AAg?$AA?3?$AA?5?$AAy?$AAo?$AAu?$AA?5?$AAa?$AAr?$AAe?$AA?5?$AAc?$AAa?$AAl?$AAl?$AAi?$AAn?$AAg?$AA?5?$AAI?$AAO?$AAC?$AAT?$AAL?$AA_?$AAH@ 00014ed8     oal_ioctl_s3c2440a:uuid.obj
 0001:00003ff0       ??_C@_1CI@DNLIPKLH@?$AAS?$AAP?$AAI?$AA_?$AAG?$AAE?$AAT?$AAP?$AAL?$AAA?$AAT?$AAF?$AAO?$AAR?$AAM?$AAT?$AAY?$AAP?$AAE?$AA?$AA@ 00014ff0     oal_ioctl_s3c2440a:deviceinfo.obj
 0001:00004018       ??_C@_1BEM@IMHNFGHE@?$AAW?$AAa?$AAr?$AAn?$AAi?$AAn?$AAg?$AA?3?$AA?5?$AAy?$AAo?$AAu?$AA?5?$AAa?$AAr?$AAe?$AA?5?$AAr?$AAe?$AAq?$AAu?$AAe?$AAs?$AAt?$AAi?$AAn?$AAg?$AA?5?$AAI?$AAO?$AAC?$AAT@ 00015018     oal_ioctl_s3c2440a:deviceinfo.obj
 0001:00004168       ??_C@_1GO@GEFDPJAG@?$AAW?$AAA?$AAR?$AAN?$AA?3?$AA?5?$AAO?$AAA?$AAL?$AAI?$AAo?$AAC?$AAt?$AAl?$AAH?$AAa?$AAl?$AAG?$AAe?$AAt?$AAD?$AAe?$AAv?$AAi?$AAc?$AAe?$AAi?$AAn?$AAf?$AAo?$AA?3?$AA?3@ 00015168     oal_ioctl_s3c2440a:deviceinfo.obj
 0001:000041d8       ??_C@_1NG@HBFOMIME@?$AAE?$AAR?$AAR?$AAO?$AAR?$AA?3?$AA?5?$AAO?$AAA?$AAL?$AAI?$AAo?$AAC?$AAt?$AAl?$AAH?$AAa?$AAl?$AAG?$AAe?$AAt?$AAD?$AAe?$AAv?$AAi?$AAc?$AAe?$AAi?$AAn?$AAf?$AAo?$AA?3@ 000151d8     oal_ioctl_s3c2440a:deviceinfo.obj
 0001:000042b0       ??_C@_1LA@BNOICHNN@?$AAE?$AAR?$AAR?$AAO?$AAR?$AA?3?$AA?5?$AAO?$AAA?$AAL?$AAI?$AAo?$AAC?$AAt?$AAl?$AAH?$AAa?$AAl?$AAG?$AAe?$AAt?$AAD?$AAe?$AAv?$AAi?$AAc?$AAe?$AAI?$AAn?$AAf?$AAo?$AA?3@ 000152b0     oal_ioctl_s3c2440a:deviceinfo.obj
 0001:00004360       ??_C@_1BO@MIPEKPNN@?$AAS?$AAP?$AAI?$AA_?$AAG?$AAE?$AAT?$AAO?$AAE?$AAM?$AAI?$AAN?$AAF?$AAO?$AA?$AA@ 00015360     oal_ioctl_s3c2440a:deviceinfo.obj
 0001:00004380       ??_C@_1CO@EPEFNCOE@?$AAS?$AAP?$AAI?$AA_?$AAG?$AAE?$AAT?$AAP?$AAL?$AAA?$AAT?$AAF?$AAO?$AAR?$AAM?$AAV?$AAE?$AAR?$AAS?$AAI?$AAO?$AAN?$AA?$AA@ 00015380     oal_ioctl_s3c2440a:deviceinfo.obj
 0001:000043b0       ??_C@_1CG@NCDPNLLL@?$AAS?$AAP?$AAI?$AA_?$AAG?$AAE?$AAT?$AAP?$AAR?$AAO?$AAJ?$AAE?$AAC?$AAT?$AAN?$AAA?$AAM?$AAE?$AA?$AA@ 000153b0     oal_ioctl_s3c2440a:deviceinfo.obj
 0001:000043d8       ??_C@_1CI@BNCCNAEN@?$AAS?$AAP?$AAI?$AA_?$AAG?$AAE?$AAT?$AAP?$AAL?$AAA?$AAT?$AAF?$AAO?$AAR?$AAM?$AAN?$AAA?$AAM?$AAE?$AA?$AA@ 000153d8     oal_ioctl_s3c2440a:deviceinfo.obj
 0001:00004400       ??_C@_1CE@JLAPMINP@?$AAS?$AAP?$AAI?$AA_?$AAG?$AAE?$AAT?$AAB?$AAO?$AAO?$AAT?$AAM?$AAE?$AAN?$AAA?$AAM?$AAE?$AA?$AA@ 00015400     oal_ioctl_s3c2440a:deviceinfo.obj
 0001:00004424       ??_C@_1BI@MGABGHAL@?$AAS?$AAP?$AAI?$AA_?$AAG?$AAE?$AAT?$AAU?$AAU?$AAI?$AAD?$AA?$AA@ 00015424     oal_ioctl_s3c2440a:deviceinfo.obj
 0001:0000444c       ??_C@_1CG@IIMMCNFM@?$AAS?$AAP?$AAI?$AA_?$AAG?$AAE?$AAT?$AAG?$AAU?$AAI?$AAD?$AAP?$AAA?$AAT?$AAT?$AAE?$AAR?$AAN?$AA?$AA@ 0001544c     oal_ioctl_s3c2440a:deviceinfo.obj
 0001:00004478       ??_C@_1FO@DMDJMEMA@?$AA?9?$AAO?$AAA?$AAL?$AAI?$AAo?$AAC?$AAt?$AAl?$AAH?$AAa?$AAl?$AAG?$AAe?$AAt?$AAD?$AAe?$AAv?$AAi?$AAc?$AAe?$AAI?$AAn?$AAf?$AAo?$AA?$CI?$AAS?$AAP?$AAI?$AA?5?$AA?$DN?$AA?5@ 00015478     oal_ioctl_s3c2440a:deviceinfo.obj
 0001:000044d8       ??_C@_1GK@FDHCLEBC@?$AAE?$AAR?$AAR?$AAO?$AAR?$AA?3?$AA?5?$AAO?$AAA?$AAL?$AAI?$AAo?$AAC?$AAt?$AAl?$AAH?$AAa?$AAl?$AAG?$AAe?$AAt?$AAD?$AAe?$AAv?$AAi?$AAc?$AAe?$AAI?$AAn?$AAf?$AAo?$AA?3@ 000154d8     oal_ioctl_s3c2440a:deviceinfo.obj
 0001:00004548       ??_C@_1FO@PNCJBAOI@?$AAO?$AAA?$AAL?$AAI?$AAo?$AAC?$AAt?$AAl?$AAH?$AAa?$AAl?$AAG?$AAe?$AAt?$AAD?$AAe?$AAv?$AAi?$AAc?$AAe?$AAI?$AAn?$AAf?$AAo?$AA?$CI?$AA?$CJ?$AA?3?$AAS?$AAP?$AAI?$AA_?$AAG@ 00015548     oal_ioctl_s3c2440a:deviceinfo.obj
 0001:000045a8       ??_C@_1FC@LHBNEKPM@?$AAO?$AAA?$AAL?$AAI?$AAo?$AAC?$AAt?$AAl?$AAH?$AAa?$AAl?$AAG?$AAe?$AAt?$AAD?$AAe?$AAv?$AAi?$AAc?$AAe?$AAI?$AAn?$AAf?$AAo?$AA?$CI?$AA?$CJ?$AA?3?$AAS?$AAP?$AAI?$AA_?$AAG@ 000155a8     oal_ioctl_s3c2440a:deviceinfo.obj
 0001:00004600       ??_C@_1GA@MEOHONPK@?$AAO?$AAA?$AAL?$AAI?$AAo?$AAC?$AAt?$AAl?$AAH?$AAa?$AAl?$AAG?$AAe?$AAt?$AAD?$AAe?$AAv?$AAi?$AAc?$AAe?$AAI?$AAn?$AAf?$AAo?$AA?$CI?$AA?$CJ?$AA?3?$AAS?$AAP?$AAI?$AA_?$AAG@ 00015600     oal_ioctl_s3c2440a:deviceinfo.obj
 0001:00004660       ??_C@_1GG@BAANNGGI@?$AAE?$AAR?$AAR?$AAO?$AAR?$AA?3?$AA?5?$AAO?$AAA?$AAL?$AAI?$AAo?$AAC?$AAt?$AAl?$AAH?$AAa?$AAl?$AAG?$AAe?$AAt?$AAD?$AAe?$AAv?$AAi?$AAc?$AAe?$AAI?$AAn?$AAf?$AAo?$AA?3@ 00015660     oal_ioctl_s3c2440a:deviceinfo.obj
 0001:000046c8       ??_C@_1GC@GILGDBIO@?$AAO?$AAA?$AAL?$AAI?$AAo?$AAC?$AAt?$AAl?$AAH?$AAa?$AAl?$AAG?$AAe?$AAt?$AAD?$AAe?$AAv?$AAi?$AAc?$AAe?$AAI?$AAn?$AAf?$AAo?$AA?$CI?$AA?$CJ?$AA?3?$AAS?$AAP?$AAI?$AA_?$AAG@ 000156c8     oal_ioctl_s3c2440a:deviceinfo.obj
 0001:00004730       ??_C@_1GI@OCOMIIKB@?$AAO?$AAA?$AAL?$AAI?$AAo?$AAC?$AAt?$AAl?$AAH?$AAa?$AAl?$AAG?$AAe?$AAt?$AAD?$AAe?$AAv?$AAi?$AAc?$AAe?$AAI?$AAn?$AAf?$AAo?$AA?$CI?$AA?$CJ?$AA?3?$AAS?$AAP?$AAI?$AA_?$AAG@ 00015730     oal_ioctl_s3c2440a:deviceinfo.obj
 0001:00004798       ??_C@_1GC@EHHEGCD@?$AAO?$AAA?$AAL?$AAI?$AAo?$AAC?$AAt?$AAl?$AAH?$AAa?$AAl?$AAG?$AAe?$AAt?$AAD?$AAe?$AAv?$AAi?$AAc?$AAe?$AAI?$AAn?$AAf?$AAo?$AA?$CI?$AA?$CJ?$AA?3?$AAS?$AAP?$AAI?$AA_?$AAG@ 00015798     oal_ioctl_s3c2440a:deviceinfo.obj
 0001:00004800       ??_C@_1FI@ICPDEFH@?$AAO?$AAA?$AAL?$AAI?$AAo?$AAC?$AAt?$AAl?$AAH?$AAa?$AAl?$AAG?$AAe?$AAt?$AAD?$AAe?$AAv?$AAi?$AAc?$AAe?$AAI?$AAn?$AAf?$AAo?$AA?$CI?$AA?$CJ?$AA?3?$AAS?$AAP?$AAI?$AA_?$AAG@ 00015800     oal_ioctl_s3c2440a:deviceinfo.obj
 0001:00004858       ??_C@_1GA@IKCJJBIN@?$AAO?$AAA?$AAL?$AAI?$AAo?$AAC?$AAt?$AAl?$AAH?$AAa?$AAl?$AAG?$AAe?$AAt?$AAD?$AAe?$AAv?$AAi?$AAc?$AAe?$AAI?$AAn?$AAf?$AAo?$AA?$CI?$AA?$CJ?$AA?3?$AAS?$AAP?$AAI?$AA_?$AAG@ 00015858     oal_ioctl_s3c2440a:deviceinfo.obj
 0001:000048b8       ??_C@_11LOCGONAA@?$AA?$AA@ 000158b8     oal_ioctl_s3c2440a:deviceinfo.obj
 0001:000048c0       ??_C@_1EC@NLAFOPGI@?$AA?$CL?$AAO?$AAA?$AAL?$AAI?$AAo?$AAC?$AAt?$AAl?$AAH?$AAa?$AAl?$AAG?$AAe?$AAt?$AAD?$AAe?$AAv?$AAi?$AAc?$AAe?$AAI?$AAn?$AAf?$AAo?$AA?$CI?$AA?4?$AA?4?$AA?4?$AA?$CJ?$AA?$AN?$AA?6@ 000158c0     oal_ioctl_s3c2440a:deviceinfo.obj
 0001:00004998       ??_C@_1EG@HKOJPLNE@?$AA?9?$AAO?$AAA?$AAL?$AAI?$AAo?$AAC?$AAt?$AAl?$AAH?$AAa?$AAl?$AAG?$AAe?$AAt?$AAD?$AAe?$AAv?$AAi?$AAc?$AAe?$AAI?$AAD?$AA?$CI?$AAr?$AAc?$AA?5?$AA?$DN?$AA?5?$AA?$CF?$AAd?$AA?$CJ@ 00015998     oal_ioctl_s3c2440a:deviceid.obj
 0001:000049e0       ??_C@_1GE@GPJLHAFO@?$AAW?$AAA?$AAR?$AAN?$AA?3?$AA?5?$AAO?$AAA?$AAL?$AAI?$AAo?$AAC?$AAt?$AAl?$AAH?$AAa?$AAl?$AAG?$AAe?$AAt?$AAD?$AAe?$AAv?$AAi?$AAc?$AAe?$AAI?$AAD?$AA?3?$AA?5?$AAI?$AAn@ 000159e0     oal_ioctl_s3c2440a:deviceid.obj
 0001:00004a48       ??_C@_1LK@FOLPDAJB@?$AAW?$AAA?$AAR?$AAN?$AA?3?$AA?5?$AAO?$AAA?$AAL?$AAI?$AAo?$AAC?$AAt?$AAl?$AAH?$AAa?$AAl?$AAG?$AAe?$AAt?$AAD?$AAe?$AAv?$AAi?$AAc?$AAe?$AAI?$AAD?$AA?3?$AA?5?$AAC?$AAa@ 00015a48     oal_ioctl_s3c2440a:deviceid.obj
 0001:00004b08       ??_C@_1LO@DFJMJCEI@?$AAW?$AAA?$AAR?$AAN?$AA?3?$AA?5?$AAO?$AAA?$AAL?$AAI?$AAo?$AAC?$AAt?$AAl?$AAH?$AAa?$AAl?$AAG?$AAe?$AAt?$AAD?$AAe?$AAv?$AAi?$AAc?$AAe?$AAI?$AAD?$AA?3?$AA?5?$AAC?$AAa@ 00015b08     oal_ioctl_s3c2440a:deviceid.obj
 0001:00004bc8       ??_C@_1DO@MLDPBFAO@?$AA?$CL?$AAO?$AAA?$AAL?$AAI?$AAo?$AAc?$AAt?$AAl?$AAH?$AAa?$AAl?$AAG?$AAe?$AAt?$AAD?$AAe?$AAv?$AAi?$AAc?$AAe?$AAI?$AAD?$AA?$CI?$AA?4?$AA?4?$AA?4?$AA?$CJ?$AA?$AN?$AA?6?$AA?$AA@ 00015bc8     oal_ioctl_s3c2440a:deviceid.obj
 0001:00004c08       ??_C@_1PC@IHJIIKFF@?$AAW?$AAa?$AAr?$AAn?$AAi?$AAn?$AAg?$AA?3?$AA?5?$AAy?$AAo?$AAu?$AA?5?$AAa?$AAr?$AAe?$AA?5?$AAr?$AAe?$AAq?$AAu?$AAe?$AAs?$AAt?$AAi?$AAn?$AAg?$AA?5?$AAI?$AAO?$AAC?$AAT@ 00015c08     oal_ioctl_s3c2440a:deviceid.obj
 0001:00004d90       ??_C@_1CK@LAAGFJIK@?$AA?$CL?$AAO?$AAA?$AAL?$AAI?$AAo?$AAC?$AAt?$AAl?$AAH?$AAa?$AAl?$AAR?$AAe?$AAb?$AAo?$AAo?$AAt?$AA?$AN?$AA?6?$AA?$AA@ 00015d90     oal_ioctl_s3c2440a:reboot.obj
 0001:00004ee0       ??_C@_1EI@MCIJGMLN@?$AA?9?$AAO?$AAA?$AAL?$AAI?$AAo?$AAC?$AAt?$AAl?$AAH?$AAa?$AAl?$AAG?$AAe?$AAt?$AAH?$AAW?$AAE?$AAn?$AAt?$AAr?$AAo?$AAp?$AAy?$AA?$CI?$AAr?$AAc?$AA?5?$AA?$DN?$AA?5?$AA?$CF?$AAd@ 00015ee0     oal_ioctl_s3c2440a:hwentropy.obj
 0001:00004f28       ??_C@_1GE@KDBGDMBH@?$AAW?$AAA?$AAR?$AAN?$AA?3?$AA?5?$AAO?$AAA?$AAL?$AAI?$AAo?$AAC?$AAt?$AAl?$AAH?$AAa?$AAl?$AAG?$AAe?$AAt?$AAH?$AAW?$AAE?$AAn?$AAt?$AAr?$AAo?$AAp?$AAy?$AA?3?$AA?5?$AAB@ 00015f28     oal_ioctl_s3c2440a:hwentropy.obj
 0001:00004f8c       ??_C@_1DG@BJFJNOHG@?$AA?$CL?$AAO?$AAA?$AAL?$AAI?$AAo?$AAC?$AAt?$AAl?$AAH?$AAa?$AAl?$AAG?$AAe?$AAt?$AAH?$AAW?$AAE?$AAn?$AAt?$AAr?$AAo?$AAp?$AAy?$AA?$AN?$AA?6?$AA?$AA@ 00015f8c     oal_ioctl_s3c2440a:hwentropy.obj
 0001:00005058       ??_C@_1DO@JHJONFOE@?$AA?9?$AAO?$AAA?$AAL?$AAI?$AAo?$AAC?$AAt?$AAl?$AAH?$AAa?$AAl?$AAD?$AAd?$AAk?$AAC?$AAa?$AAl?$AAl?$AA?$CI?$AAr?$AAc?$AA?5?$AA?$DN?$AA?5?$AA?$CF?$AAd?$AA?$CJ?$AA?$AN?$AA?6?$AA?$AA@ 00016058     oal_io:ioctl.obj
 0001:00005098       ??_C@_1FM@IFHLCDE@?$AAE?$AAR?$AAR?$AAO?$AAR?$AA?3?$AAO?$AAA?$AAL?$AAI?$AAo?$AAc?$AAt?$AAl?$AAH?$AAa?$AAl?$AAD?$AAd?$AAk?$AAC?$AAa?$AAl?$AAl?$AA?3?$AA?5?$AAI?$AAN?$AAV?$AAA?$AAL?$AAI@ 00016098     oal_io:ioctl.obj
 0001:000050f8       ??_C@_1HM@DONGDDHM@?$AAE?$AAR?$AAR?$AAO?$AAR?$AA?3?$AA?5?$AAO?$AAA?$AAL?$AAI?$AAo?$AAc?$AAt?$AAl?$AAH?$AAa?$AAl?$AAD?$AAd?$AAk?$AAC?$AAa?$AAl?$AAl?$AA?3?$AA?5?$AAU?$AAn?$AAs?$AAu?$AAp@ 000160f8     oal_io:ioctl.obj
 0001:00005178       ??_C@_1GE@BFODAIDF@?$AAE?$AAR?$AAR?$AAO?$AAR?$AA?3?$AA?5?$AAO?$AAA?$AAL?$AAI?$AAo?$AAc?$AAt?$AAl?$AAH?$AAa?$AAl?$AAD?$AAd?$AAk?$AAC?$AAa?$AAl?$AAl?$AA?3?$AA?5?$AAU?$AAn?$AAs?$AAu?$AAp@ 00016178     oal_io:ioctl.obj
 0001:000051dc       ??_C@_1DG@HOFDDFMH@?$AA?$CL?$AAO?$AAA?$AAL?$AAI?$AAo?$AAC?$AAt?$AAl?$AAH?$AAa?$AAl?$AAD?$AAd?$AAk?$AAC?$AAa?$AAl?$AAl?$AA?$CI?$AA?4?$AA?4?$AA?4?$AA?$CJ?$AA?$AN?$AA?6?$AA?$AA@ 000161dc     oal_io:ioctl.obj
 0001:000052a8       ??_C@_1DK@DKAHFGMP@?$AA?9?$AAO?$AAA?$AAL?$AAI?$AAo?$AAB?$AAu?$AAs?$AAP?$AAo?$AAw?$AAe?$AAr?$AAO?$AAf?$AAf?$AA?$CI?$AAr?$AAc?$AA?5?$AA?$DN?$AA?5?$AA?$CF?$AAd?$AA?$CJ?$AA?$AN?$AA?6?$AA?$AA@ 000162a8     oal_io:power.obj
 0001:000052e4       ??_C@_1DI@PEAMECNB@?$AA?$CL?$AAO?$AAA?$AAL?$AAI?$AAo?$AAB?$AAu?$AAs?$AAP?$AAo?$AAw?$AAe?$AAr?$AAO?$AAf?$AAf?$AA?$CI?$AA?$CF?$AAd?$AA?0?$AA?5?$AA?$CF?$AAd?$AA?$CJ?$AA?$AN?$AA?6?$AA?$AA@ 000162e4     oal_io:power.obj
 0001:0000531c       ??_C@_1DI@BEKMCAGI@?$AA?9?$AAO?$AAA?$AAL?$AAI?$AAo?$AAB?$AAu?$AAs?$AAP?$AAo?$AAw?$AAe?$AAr?$AAO?$AAn?$AA?$CI?$AAr?$AAc?$AA?5?$AA?$DN?$AA?5?$AA?$CF?$AAd?$AA?$CJ?$AA?$AN?$AA?6?$AA?$AA@ 0001631c     oal_io:power.obj
 0001:00005354       ??_C@_1DG@BNAKMMEE@?$AA?$CL?$AAO?$AAA?$AAL?$AAI?$AAo?$AAB?$AAu?$AAs?$AAP?$AAo?$AAw?$AAe?$AAr?$AAO?$AAn?$AA?$CI?$AA?$CF?$AAd?$AA?0?$AA?5?$AA?$CF?$AAd?$AA?$CJ?$AA?$AN?$AA?6?$AA?$AA@ 00016354     oal_io:power.obj
 0001:00005420       ??_C@_1KE@FCFGNLKM@?$AA?9?$AAO?$AAA?$AAL?$AAT?$AAr?$AAa?$AAn?$AAs?$AAl?$AAa?$AAt?$AAe?$AAB?$AAu?$AAs?$AAA?$AAd?$AAd?$AAr?$AAe?$AAs?$AAs?$AA?$CI?$AAa?$AAd?$AAd?$AAr?$AAe?$AAs?$AAs?$AAS@ 00016420     oal_io:trans.obj
 0001:000054c8       ??_C@_1GI@BPOGFGAB@?$AA?$CL?$AAO?$AAA?$AAL?$AAI?$AAo?$AAT?$AAr?$AAa?$AAn?$AAs?$AAl?$AAa?$AAt?$AAe?$AAB?$AAu?$AAs?$AAA?$AAd?$AAd?$AAr?$AAe?$AAs?$AAs?$AA?$CI?$AA?$CF?$AAd?$AA?0?$AA?5?$AA?$CF?$AAd@ 000164c8     oal_io:trans.obj
 0001:00005530       ??_C@_1HM@IKCJOCJL@?$AA?9?$AAO?$AAA?$AAL?$AAT?$AAr?$AAa?$AAn?$AAs?$AAl?$AAa?$AAt?$AAe?$AAS?$AAy?$AAs?$AAt?$AAe?$AAm?$AAA?$AAd?$AAd?$AAr?$AAe?$AAs?$AAs?$AA?$CI?$AAb?$AAu?$AAs?$AAA?$AAd@ 00016530     oal_io:trans.obj
 0001:000055b0       ??_C@_1GC@GKDDBMML@?$AA?$CL?$AAO?$AAA?$AAL?$AAT?$AAr?$AAa?$AAn?$AAs?$AAl?$AAa?$AAt?$AAe?$AAS?$AAy?$AAs?$AAt?$AAe?$AAm?$AAA?$AAd?$AAd?$AAr?$AAe?$AAs?$AAs?$AA?$CI?$AA?$CF?$AAd?$AA?0?$AA?5?$AA?$CF@ 000165b0     oal_io:trans.obj
 0001:00005634       OALFlushDCache             00016634 f   oal_cache_s3c2440a:flushdc.obj
 0001:000056a8       OALFlushICache             000166a8 f   oal_cache_s3c2440a:flushic.obj
 0001:000056b4       OALClearUTLB               000166b4 f   oal_cache_s3c2440a:clearutlb.obj
 0001:000056c0       PaFromVa                   000166c0 f   nkldr:armstart.obj
 0001:00005710       VaFromPa                   00016710 f   nkldr:armstart.obj
 0001:0000575c       GetCpuId                   0001675c f   nkldr:armstart.obj
 0001:00005764       KernelStart                00016764 f   nkldr:armstart.obj
 0001:0000596c       ARMInit                    0001696c f   nkldr:arminit.obj
 0001:000059b0       KernelRelocate             000169b0 f   nkldr:ldrcmn.obj
 0001:00005a2c       FindKernelEntry            00016a2c f   nkldr:ldrcmn.obj
 0001:00005aa0       SetOsAxsDataBlockPointer   00016aa0 f   nkldr:kdinfo.obj
 0001:00005ab8       _stricmp                   00016ab8 f   nkldr:strings.obj
 0001:00005b08       memset                     00016b08 f   fulllibc:memset.obj
 0001:00005b90       memcpy                     00016b90 f   fulllibc:memcpy.obj
 0001:00005f3c       memcpybigblk               00016f3c f   fulllibc:memcpy.obj
 0001:000068f0       tolower                    000178f0 f   fulllibc:tolower.obj
 0001:00006914       OEMInitGlobals             00017914 f   oemmain:oemglobal.obj
 0001:00006944       NKDbgPrintfW               00017944 f   nkstub:nkstub.obj
 0001:00006978       NKwvsprintfW               00017978 f   nkstub:nkstub.obj
 0001:0000699c       NKSetLastError             0001799c f   nkstub:nkstub.obj
 0001:000069c0       EnterCriticalSection       000179c0 f   nkstub:nkstub.obj
 0001:000069e4       LeaveCriticalSection       000179e4 f   nkstub:nkstub.obj
 0001:00006a08       InitializeCriticalSection  00017a08 f   nkstub:nkstub.obj
 0001:00006a2c       INTERRUPTS_OFF             00017a2c f   nkstub:nkstub.obj
 0001:00006a50       INTERRUPTS_ON              00017a50 f   nkstub:nkstub.obj
 0001:00006a74       INTERRUPTS_ENABLE          00017a74 f   nkstub:nkstub.obj
 0001:00006a98       NKCallIntChain             00017a98 f   nkstub:nkstub.obj
 0001:00006abc       NKIsSysIntrValid           00017abc f   nkstub:nkstub.obj
 0001:00006ae0       NKForceCleanBoot           00017ae0 f   nkstub:nkstub.obj
 0001:00006b04       NKwcslen                   00017b04 f   nkstub:nkstub.obj
 0001:00006b28       NKwcscpy                   00017b28 f   nkstub:nkstub.obj
 0001:00006b54       ProfilerHit                00017b54 f   nkstub:nkstub.obj
 0001:00006ba8       __report_gsfailure         00017ba8 f   nkstub:nkstub.obj
 0001:00006bcc       OEMInitDebugSerial         00017bcc f   oal:debug.obj
 0001:00006d38       OEMWriteDebugByte          00017d38 f   oal:debug.obj
 0001:00006d58       OEMReadDebugByte           00017d58 f   oal:debug.obj
 0001:00006eb4       ConfigureGPIO              00017eb4 f   oal:init.obj
 0001:00007008       OEMInit                    00018008 f   oal:init.obj
 0001:00007200       OEMCacheRangeFlush         00018200 f   oal_cache_s3c2440a:flush.obj
 0001:000073a8       OEMARMCacheMode            000183a8 f   oal_cache_s3c2440a:cachemode.obj
 0001:000073b0       OALCacheGlobalsInit        000183b0 f   oal_cache_s3c2440a:init.obj
 0001:00007528       OALClearDTLB               00018528 f   oal_cache_s3c2440a:cleardtlb.obj
 0001:00007534       OALClearDTLBEntry          00018534 f   oal_cache_s3c2440a:cleardtlbentry.obj
 0001:0000753c       OALClearITLB               0001853c f   oal_cache_s3c2440a:clearitlb.obj
 0001:00007548       OALClearITLBEntry          00018548 f   oal_cache_s3c2440a:clearitlbentry.obj
 0001:00007550       OALFlushICacheLines        00018550 f   oal_cache_s3c2440a:flushiclines.obj
 0001:00007570       OALCleanDCacheLines        00018570 f   oal_cache_s3c2440a:cleandclines.obj
 0001:00007598       OALCleanDCache             00018598 f   oal_cache_s3c2440a:cleandc.obj
 0001:0000760c       OALFlushDCacheLines        0001860c f   oal_cache_s3c2440a:flushdclines.obj
 0001:0000762c       OALPAtoVA                  0001862c f   oal_memory_s3c2440a:memory.obj
 0001:000076a8       OALTimerInit               000186a8 f   oal_timer_s3c2440a:timer_fixtick.obj
 0001:000078b0       OALTimerIntrHandler        000188b0 f   oal_timer_s3c2440a:timer_fixtick.obj
 0001:00007924       OALTimerCountsSinceSysTick 00018924 f   oal_timer_s3c2440a:timer_fixtick.obj
 0001:00007948       OEMIdle                    00018948 f   oal_timer_s3c2440a:timer_fixtick.obj
 0001:000079cc       OEMGetTickCount            000189cc f   oal_timer_s3c2440a:counts.obj
 0001:00007a38       OALTimerQueryPerformanceFrequency 00018a38 f   oal_timer_s3c2440a:counts.obj
 0001:00007a68       OALTimerQueryPerformanceCounter 00018a68 f   oal_timer_s3c2440a:counts.obj
 0001:00007ac0       OALCPUIdle                 00018ac0 f   oal_timer_s3c2440a:oalcpuidle.obj
 0001:00007b40       OEMInterruptHandlerFIQ     00018b40 f   oal_intr_s3c2440a:fiq.obj
 0001:00007b44       OALIntrInit                00018b44 f   oal_intr_s3c2440a:intr.obj
 0001:00007bf4       OALIntrRequestIrqs         00018bf4 f   oal_intr_s3c2440a:intr.obj
 0001:00007ca8       OALIntrEnableIrqs          00018ca8 f   oal_intr_s3c2440a:intr.obj
 0001:00007dfc       OALIntrDisableIrqs         00018dfc f   oal_intr_s3c2440a:intr.obj
 0001:00007ec0       OALIntrDoneIrqs            00018ec0 f   oal_intr_s3c2440a:intr.obj
 0001:00007f8c       OEMInterruptHandler        00018f8c f   oal_intr_s3c2440a:intr.obj
 0001:000081c4       OALIntrMapInit             000191c4 f   oal_intr_s3c2440a:map.obj
 0001:00008244       OALIntrStaticTranslate     00019244 f   oal_intr_s3c2440a:map.obj
 0001:000082bc       OALIntrTranslateIrq        000192bc f   oal_intr_s3c2440a:map.obj
 0001:0000832c       OALIntrRequestSysIntr      0001932c f   oal_intr_s3c2440a:map.obj
 0001:0000845c       OALIntrReleaseSysIntr      0001945c f   oal_intr_s3c2440a:map.obj
 0001:0000851c       OEMInterruptEnable         0001951c f   oal_intr_s3c2440a:map.obj
 0001:000085b0       OEMInterruptDisable        000195b0 f   oal_intr_s3c2440a:map.obj
 0001:00008610       OEMInterruptMask           00019610 f   oal_intr_s3c2440a:map.obj
 0001:00008688       OEMInterruptDone           00019688 f   oal_intr_s3c2440a:map.obj
 0001:000086e8       OEMGetRealTime             000196e8 f   oal_rtc_s3c2440a:rtc.obj
 0001:00008854       OEMSetRealTime             00019854 f   oal_rtc_s3c2440a:rtc.obj
 0001:00008a3c       OEMSetAlarmTime            00019a3c f   oal_rtc_s3c2440a:rtc.obj
 0001:00008bf4       OEMProfileTimerDisable     00019bf4 f   oal_profiler_s3c2440a:profiler.obj
 0001:00008c74       OALProfileIntrHandler      00019c74 f   oal_profiler_s3c2440a:profiler.obj
 0001:00008ce4       OEMProfileTimerEnable      00019ce4 f   oal_profiler_s3c2440a:profiler.obj
 0001:00008dd8       OEMPowerOff                00019dd8 f   oal_power_s3c2440a:off.obj
 0001:000091d8       OEMIoControl               0001a1d8 f   oal_ioctl_s3c2440a:ioctl.obj
 0001:00009384       OALArgsInit                0001a384 f   s3c2440a_args:args.obj
 0001:000094e8       OALArgsQuery               0001a4e8 f   s3c2440a_args:args.obj
 0001:000095f0       OEMGetExtensionDRAM        0001a5f0 f   oal_other:memory.obj
 0001:000095f8       OEMWriteDebugString        0001a5f8 f   oal_other:debug.obj
 0001:00009624       OALLogSetZones             0001a624 f   oal_log:debug.obj
 0001:00009658       OALLogSerial               0001a658 f   oal_log:log.obj
 0001:000096ac       __GSHandlerCheckCommon     0001a6ac f   fulllibc:gshandler.obj
 0001:000096e8       __GSHandlerCheck           0001a6e8 f   fulllibc:gshandler.obj
 0001:0000970c       __security_check_cookie    0001a70c f   fulllibc:armsecgs.obj
 0001:00009720       __gsfailure                0001a720 f   fulllibc:armsecgs.obj
 0001:00009764       __rt_udiv                  0001a764 f   fulllibc:__udiv.obj
 0001:00009828       __raise_int_divide_by_zero 0001a828 f   fulllibc:diverr.obj
 0001:0000984c       __crtRaiseException        0001a84c f   fulllibc:raiseexc.obj
 0001:00009868       KITLIoctl                  0001a868 f   nkstub:kitlstub.obj
 0001:000098a4       BSPIntrInit                0001a8a4 f   oal:intr.obj
 0001:00009974       BSPIntrRequestIrqs         0001a974 f   oal:intr.obj
 0001:00009a50       BSPIntrEnableIrq           0001aa50 f   oal:intr.obj
 0001:00009aac       BSPIntrDisableIrq          0001aaac f   oal:intr.obj
 0001:00009b08       BSPIntrDoneIrq             0001ab08 f   oal:intr.obj
 0001:00009b64       BSPPowerOff                0001ab64 f   oal:power.obj
 0001:00009c24       ConfigStopGPIO             0001ac24 f   oal:power.obj
 0001:00009d30       NANDInit                   0001ad30 f   oal:power.obj
 0001:00009d80       InitTimer                  0001ad80 f   oal:power.obj
 0001:00009de8       BSPPowerOn                 0001ade8 f   oal:power.obj
 0001:0000a040       OALIoCtlHalInitRTC         0001b040 f   oal:ioctl.obj
 0001:0000a0dc       OALIoCtlHalGetCacheInfo    0001b0dc f   oal_cache_s3c2440a:ioctl.obj
 0001:0000a224       OALIoCtlHalRequestSysIntr  0001b224 f   oal_intr_s3c2440a:ioctl.obj
 0001:0000a370       OALIoCtlHalReleaseSysIntr  0001b370 f   oal_intr_s3c2440a:ioctl.obj
 0001:0000a420       OALIoCtlHalRequestIrq      0001b420 f   oal_intr_s3c2440a:ioctl.obj
 0001:0000a520       OALIoCtlHalEnableWake      0001b520 f   oal_power_s3c2440a:ioctl.obj
 0001:0000a604       OALIoCtlHalDisableWake     0001b604 f   oal_power_s3c2440a:ioctl.obj
 0001:0000a6e8       OALIoCtlHalGetWakeSource   0001b6e8 f   oal_power_s3c2440a:ioctl.obj
 0001:0000a790       OALIoCtlHalUpdateMode      0001b790 f   oal_ioctl_s3c2440a:imgupd.obj
 0001:0000a834       OALIoCtlHalGetRegSecureKeys 0001b834 f   oal_ioctl_s3c2440a:securekeys.obj
 0001:0000a8b8       OALIoCtlProcessorInfo      0001b8b8 f   oal_ioctl_s3c2440a:procinfo.obj
 0001:0000aaa0       OALIoCtlHalGetRandomSeed   0001baa0 f   oal_ioctl_s3c2440a:randomseed.obj
 0001:0000ac64       OALIoCtlHalGetUUID         0001bc64 f   oal_ioctl_s3c2440a:uuid.obj
 0001:0000af58       OALIoCtlHalGetDeviceInfo   0001bf58 f   oal_ioctl_s3c2440a:deviceinfo.obj
 0001:0000b348       OALIoCtlHalGetDeviceId     0001c348 f   oal_ioctl_s3c2440a:deviceid.obj
 0001:0000b508       OALIoCtlHalReboot          0001c508 f   oal_ioctl_s3c2440a:reboot.obj
 0001:0000b55c       OALIoCtlHalInitRegistry    0001c55c f   oal_ioctl_s3c2440a:reginit.obj
 0001:0000b564       OALIoCtlHalGetHWEntropy    0001c564 f   oal_ioctl_s3c2440a:hwentropy.obj
 0001:0000b62c       OALIoCtlHalDdkCall         0001c62c f   oal_io:ioctl.obj
 0001:0000b888       OALIoBusPowerOff           0001c888 f   oal_io:power.obj
 0001:0000b8e8       OALIoBusPowerOn            0001c8e8 f   oal_io:power.obj
 0001:0000b948       OALIoTransBusAddress       0001c948 f   oal_io:trans.obj
 0001:0000ba08       OALIoTransSystemAddress    0001ca08 f   oal_io:trans.obj
 0001:0000ba94       OALIoReadBusData           0001ca94 f   oal_io:data.obj
 0001:0000ba9c       OALIoWriteBusData          0001ca9c f   oal_io:data.obj
 0001:0000baa4       strlen                     0001caa4 f   fulllibc:mdsstrlen.obj
 0003:00000000       OsAxsDataBlock_2           00023000     nkldr:kdinfo.obj
 0003:00000080       OsAxsHwTrap                00023080     nkldr:kdinfo.obj
 0003:0000021c       g_pOemGlobal               0002321c     oemmain:oemglobal.obj
 0003:00000220       __security_cookie          00023220     nkstub:nkstub.obj
 0003:00000224       __security_cookie_complement 00023224     nkstub:nkstub.obj
 0003:00000228       initialOALLogZones         00023228     oal_log:debug.obj
 0003:00000230       dpCurSettings              00023230     oal_log:debug.obj
 0003:00000674       g_oalIoCtlPlatformType     00023674     oal:ioctl.obj
 0003:00000678       g_oalIoCtlPlatformOEM      00023678     oal:ioctl.obj
 0003:0000067c       g_oalIoCtlProcessorVendor  0002367c     oal:ioctl.obj
 0003:00000680       g_oalIoCtlProcessorName    00023680     oal:ioctl.obj
 0003:00000684       g_oalIoCtlProcessorCore    00023684     oal:ioctl.obj
 0003:00000688       g_oalWakeSource            00023688     oal_power_s3c2440a:ioctl.obj
 0003:000006b8       g_pProfilerISR             000236b8     oal_intr_s3c2440a:intr.obj
 0003:000009d4       g_oalIoCtlInstructionSet   000239d4     oal:ioctl.obj
 0003:000009e4       g_pNKGlobal                000239e4     <common>
 0003:000009e8       g_oalIoCtlClockSpeed       000239e8     <common>
 0003:00000a00       g_oalCacheInfo             00023a00     <common>
 0003:00000a48       b_oalInterruptFlag         00023a48     <common>
 0003:00000a60       g_oalTimer                 00023a60     <common>
 0003:00000a88       g_oalLastSysIntr           00023a88     <common>

 entry point at        0001:00000000

 Static symbols

 0001:00006900       ReturnFalse                00017900 f   oemmain:oemglobal.obj
 0001:00006908       ReturnSelf                 00017908 f   oemmain:oemglobal.obj
 0001:0000690c       FakeCalcPage               0001790c f   oemmain:oemglobal.obj
 0001:00006d78       InitDisplay                00017d78 f   oal:init.obj
 0001:00009e78       OALIoCtlHalGetHiveCleanFlag 0001ae78 f   oal:ioctl.obj
 0001:00009f24       OALIoCtlHalQueryFormatPartition 0001af24 f   oal:ioctl.obj
 0001:0000ada0       ?CheckBufferSize@@YAHPBXABIPAI1PBG@Z 0001bda0 f   oal_ioctl_s3c2440a:deviceinfo.obj
 0001:0000ae4c       ?GetBootMeName@@YAHPAXIPAIPAPBG@Z 0001be4c f   oal_ioctl_s3c2440a:deviceinfo.obj
